
code.elf:     file format elf32-littlearm

Sections:
Idx Name          Size      VMA       LMA       File off  Algn
  0 .isr_vector   0000010c  08000000  08000000  00010000  2**0
                  CONTENTS, ALLOC, LOAD, READONLY, DATA
  1 .text         00003a94  0800010c  0800010c  0001010c  2**2
                  CONTENTS, ALLOC, LOAD, READONLY, CODE
  2 .rodata       000001cc  08003ba0  08003ba0  00013ba0  2**2
                  CONTENTS, ALLOC, LOAD, READONLY, DATA
  3 .ARM.extab    00000000  08003d6c  08003d6c  00022560  2**0
                  CONTENTS
  4 .ARM          00000000  08003d6c  08003d6c  00022560  2**0
                  CONTENTS
  5 .preinit_array 00000000  08003d6c  08003d6c  00022560  2**0
                  CONTENTS, ALLOC, LOAD, DATA
  6 .init_array   00000004  08003d6c  08003d6c  00013d6c  2**2
                  CONTENTS, ALLOC, LOAD, DATA
  7 .fini_array   00000004  08003d70  08003d70  00013d70  2**2
                  CONTENTS, ALLOC, LOAD, DATA
  8 .data         00002560  20000000  08003d74  00020000  2**2
                  CONTENTS, ALLOC, LOAD, DATA
  9 .bss          000000c8  20002560  080062d4  00022560  2**2
                  ALLOC
 10 ._user_heap_stack 00000600  20002628  080062d4  00022628  2**0
                  ALLOC
 11 .ARM.attributes 00000029  00000000  00000000  00022560  2**0
                  CONTENTS, READONLY
 12 .comment      00000053  00000000  00000000  00022589  2**0
                  CONTENTS, READONLY
 13 .debug_frame  0000004c  00000000  00000000  000225dc  2**2
                  CONTENTS, READONLY, DEBUGGING, OCTETS

Disassembly of section .text:

0800010c <__do_global_dtors_aux>:
 800010c:	b510      	push	{r4, lr}
 800010e:	4c05      	ldr	r4, [pc, #20]	; (8000124 <__do_global_dtors_aux+0x18>)
 8000110:	7823      	ldrb	r3, [r4, #0]
 8000112:	b933      	cbnz	r3, 8000122 <__do_global_dtors_aux+0x16>
 8000114:	4b04      	ldr	r3, [pc, #16]	; (8000128 <__do_global_dtors_aux+0x1c>)
 8000116:	b113      	cbz	r3, 800011e <__do_global_dtors_aux+0x12>
 8000118:	4804      	ldr	r0, [pc, #16]	; (800012c <__do_global_dtors_aux+0x20>)
 800011a:	f3af 8000 	nop.w
 800011e:	2301      	movs	r3, #1
 8000120:	7023      	strb	r3, [r4, #0]
 8000122:	bd10      	pop	{r4, pc}
 8000124:	20002560 	.word	0x20002560
 8000128:	00000000 	.word	0x00000000
 800012c:	08003b88 	.word	0x08003b88

08000130 <frame_dummy>:
 8000130:	b508      	push	{r3, lr}
 8000132:	4b03      	ldr	r3, [pc, #12]	; (8000140 <frame_dummy+0x10>)
 8000134:	b11b      	cbz	r3, 800013e <frame_dummy+0xe>
 8000136:	4903      	ldr	r1, [pc, #12]	; (8000144 <frame_dummy+0x14>)
 8000138:	4803      	ldr	r0, [pc, #12]	; (8000148 <frame_dummy+0x18>)
 800013a:	f3af 8000 	nop.w
 800013e:	bd08      	pop	{r3, pc}
 8000140:	00000000 	.word	0x00000000
 8000144:	20002564 	.word	0x20002564
 8000148:	08003b88 	.word	0x08003b88

0800014c <MX_GPIO_Init>:
 800014c:	e92d 4ff0 	stmdb	sp!, {r4, r5, r6, r7, r8, r9, sl, fp, lr}
 8000150:	2400      	movs	r4, #0
 8000152:	b089      	sub	sp, #36	; 0x24
 8000154:	e9cd 4404 	strd	r4, r4, [sp, #16]
 8000158:	e9cd 4406 	strd	r4, r4, [sp, #24]
 800015c:	4b51      	ldr	r3, [pc, #324]	; (80002a4 <MX_GPIO_Init+0x158>)
 800015e:	f8df a158 	ldr.w	sl, [pc, #344]	; 80002b8 <MX_GPIO_Init+0x16c>
 8000162:	699a      	ldr	r2, [r3, #24]
 8000164:	4d50      	ldr	r5, [pc, #320]	; (80002a8 <MX_GPIO_Init+0x15c>)
 8000166:	f042 0210 	orr.w	r2, r2, #16
 800016a:	619a      	str	r2, [r3, #24]
 800016c:	699a      	ldr	r2, [r3, #24]
 800016e:	4f4f      	ldr	r7, [pc, #316]	; (80002ac <MX_GPIO_Init+0x160>)
 8000170:	f002 0210 	and.w	r2, r2, #16
 8000174:	9200      	str	r2, [sp, #0]
 8000176:	9a00      	ldr	r2, [sp, #0]
 8000178:	699a      	ldr	r2, [r3, #24]
 800017a:	4650      	mov	r0, sl
 800017c:	f042 0220 	orr.w	r2, r2, #32
 8000180:	619a      	str	r2, [r3, #24]
 8000182:	6999      	ldr	r1, [r3, #24]
 8000184:	2201      	movs	r2, #1
 8000186:	f001 0120 	and.w	r1, r1, #32
 800018a:	9101      	str	r1, [sp, #4]
 800018c:	9901      	ldr	r1, [sp, #4]
 800018e:	699e      	ldr	r6, [r3, #24]
 8000190:	f44f 5100 	mov.w	r1, #8192	; 0x2000
 8000194:	f046 0604 	orr.w	r6, r6, #4
 8000198:	619e      	str	r6, [r3, #24]
 800019a:	699e      	ldr	r6, [r3, #24]
 800019c:	f04f 0800 	mov.w	r8, #0
 80001a0:	f006 0604 	and.w	r6, r6, #4
 80001a4:	9602      	str	r6, [sp, #8]
 80001a6:	9e02      	ldr	r6, [sp, #8]
 80001a8:	f8d3 c018 	ldr.w	ip, [r3, #24]
 80001ac:	f04f 0902 	mov.w	r9, #2
 80001b0:	f04c 0c08 	orr.w	ip, ip, #8
 80001b4:	f8c3 c018 	str.w	ip, [r3, #24]
 80001b8:	699b      	ldr	r3, [r3, #24]
 80001ba:	2602      	movs	r6, #2
 80001bc:	f003 0308 	and.w	r3, r3, #8
 80001c0:	9303      	str	r3, [sp, #12]
 80001c2:	9b03      	ldr	r3, [sp, #12]
 80001c4:	f001 fbbe 	bl	8001944 <HAL_GPIO_WritePin>
 80001c8:	4622      	mov	r2, r4
 80001ca:	4628      	mov	r0, r5
 80001cc:	f44f 71e0 	mov.w	r1, #448	; 0x1c0
 80001d0:	f001 fbb8 	bl	8001944 <HAL_GPIO_WritePin>
 80001d4:	4622      	mov	r2, r4
 80001d6:	4638      	mov	r0, r7
 80001d8:	2160      	movs	r1, #96	; 0x60
 80001da:	f001 fbb3 	bl	8001944 <HAL_GPIO_WritePin>
 80001de:	f44f 5200 	mov.w	r2, #8192	; 0x2000
 80001e2:	2301      	movs	r3, #1
 80001e4:	4650      	mov	r0, sl
 80001e6:	a904      	add	r1, sp, #16
 80001e8:	e9cd 2304 	strd	r2, r3, [sp, #16]
 80001ec:	e9cd 8906 	strd	r8, r9, [sp, #24]
 80001f0:	f001 f9ce 	bl	8001590 <HAL_GPIO_Init>
 80001f4:	2215      	movs	r2, #21
 80001f6:	4b2e      	ldr	r3, [pc, #184]	; (80002b0 <MX_GPIO_Init+0x164>)
 80001f8:	4628      	mov	r0, r5
 80001fa:	a904      	add	r1, sp, #16
 80001fc:	e9cd 2304 	strd	r2, r3, [sp, #16]
 8000200:	9606      	str	r6, [sp, #24]
 8000202:	f001 f9c5 	bl	8001590 <HAL_GPIO_Init>
 8000206:	222a      	movs	r2, #42	; 0x2a
 8000208:	2300      	movs	r3, #0
 800020a:	4628      	mov	r0, r5
 800020c:	a904      	add	r1, sp, #16
 800020e:	e9cd 2304 	strd	r2, r3, [sp, #16]
 8000212:	f04f 0a02 	mov.w	sl, #2
 8000216:	f04f 0b02 	mov.w	fp, #2
 800021a:	9606      	str	r6, [sp, #24]
 800021c:	f001 f9b8 	bl	8001590 <HAL_GPIO_Init>
 8000220:	f44f 72e0 	mov.w	r2, #448	; 0x1c0
 8000224:	2301      	movs	r3, #1
 8000226:	4628      	mov	r0, r5
 8000228:	a904      	add	r1, sp, #16
 800022a:	e9cd 2304 	strd	r2, r3, [sp, #16]
 800022e:	e9cd ab06 	strd	sl, fp, [sp, #24]
 8000232:	f001 f9ad 	bl	8001590 <HAL_GPIO_Init>
 8000236:	2260      	movs	r2, #96	; 0x60
 8000238:	2301      	movs	r3, #1
 800023a:	4638      	mov	r0, r7
 800023c:	a904      	add	r1, sp, #16
 800023e:	e9cd 2304 	strd	r2, r3, [sp, #16]
 8000242:	e9cd 8906 	strd	r8, r9, [sp, #24]
 8000246:	f001 f9a3 	bl	8001590 <HAL_GPIO_Init>
 800024a:	f44f 7260 	mov.w	r2, #896	; 0x380
 800024e:	4b19      	ldr	r3, [pc, #100]	; (80002b4 <MX_GPIO_Init+0x168>)
 8000250:	4638      	mov	r0, r7
 8000252:	a904      	add	r1, sp, #16
 8000254:	e9cd 2304 	strd	r2, r3, [sp, #16]
 8000258:	9606      	str	r6, [sp, #24]
 800025a:	f001 f999 	bl	8001590 <HAL_GPIO_Init>
 800025e:	4622      	mov	r2, r4
 8000260:	4621      	mov	r1, r4
 8000262:	2006      	movs	r0, #6
 8000264:	f001 f8b8 	bl	80013d8 <HAL_NVIC_SetPriority>
 8000268:	2006      	movs	r0, #6
 800026a:	f001 f8ff 	bl	800146c <HAL_NVIC_EnableIRQ>
 800026e:	4622      	mov	r2, r4
 8000270:	4621      	mov	r1, r4
 8000272:	2008      	movs	r0, #8
 8000274:	f001 f8b0 	bl	80013d8 <HAL_NVIC_SetPriority>
 8000278:	2008      	movs	r0, #8
 800027a:	f001 f8f7 	bl	800146c <HAL_NVIC_EnableIRQ>
 800027e:	4622      	mov	r2, r4
 8000280:	4621      	mov	r1, r4
 8000282:	200a      	movs	r0, #10
 8000284:	f001 f8a8 	bl	80013d8 <HAL_NVIC_SetPriority>
 8000288:	200a      	movs	r0, #10
 800028a:	f001 f8ef 	bl	800146c <HAL_NVIC_EnableIRQ>
 800028e:	4622      	mov	r2, r4
 8000290:	4621      	mov	r1, r4
 8000292:	2017      	movs	r0, #23
 8000294:	f001 f8a0 	bl	80013d8 <HAL_NVIC_SetPriority>
 8000298:	2017      	movs	r0, #23
 800029a:	f001 f8e7 	bl	800146c <HAL_NVIC_EnableIRQ>
 800029e:	b009      	add	sp, #36	; 0x24
 80002a0:	e8bd 8ff0 	ldmia.w	sp!, {r4, r5, r6, r7, r8, r9, sl, fp, pc}
 80002a4:	40021000 	.word	0x40021000
 80002a8:	40010800 	.word	0x40010800
 80002ac:	40010c00 	.word	0x40010c00
 80002b0:	10210000 	.word	0x10210000
 80002b4:	10110000 	.word	0x10110000
 80002b8:	40011000 	.word	0x40011000

080002bc <EnableCaliperInterrupts>:
 80002bc:	b508      	push	{r3, lr}
 80002be:	2006      	movs	r0, #6
 80002c0:	f001 f8d4 	bl	800146c <HAL_NVIC_EnableIRQ>
 80002c4:	2008      	movs	r0, #8
 80002c6:	f001 f8d1 	bl	800146c <HAL_NVIC_EnableIRQ>
 80002ca:	e8bd 4008 	ldmia.w	sp!, {r3, lr}
 80002ce:	200a      	movs	r0, #10
 80002d0:	f001 b8cc 	b.w	800146c <HAL_NVIC_EnableIRQ>

080002d4 <DisableCaliperInterrupts>:
 80002d4:	b508      	push	{r3, lr}
 80002d6:	2006      	movs	r0, #6
 80002d8:	f001 f8dc 	bl	8001494 <HAL_NVIC_DisableIRQ>
 80002dc:	2008      	movs	r0, #8
 80002de:	f001 f8d9 	bl	8001494 <HAL_NVIC_DisableIRQ>
 80002e2:	e8bd 4008 	ldmia.w	sp!, {r3, lr}
 80002e6:	200a      	movs	r0, #10
 80002e8:	f001 b8d4 	b.w	8001494 <HAL_NVIC_DisableIRQ>

080002ec <MX_I2C2_Init>:
 80002ec:	2300      	movs	r3, #0
 80002ee:	f44f 4280 	mov.w	r2, #16384	; 0x4000
 80002f2:	b510      	push	{r4, lr}
 80002f4:	4809      	ldr	r0, [pc, #36]	; (800031c <MX_I2C2_Init+0x30>)
 80002f6:	4c0a      	ldr	r4, [pc, #40]	; (8000320 <MX_I2C2_Init+0x34>)
 80002f8:	490a      	ldr	r1, [pc, #40]	; (8000324 <MX_I2C2_Init+0x38>)
 80002fa:	e9c0 3302 	strd	r3, r3, [r0, #8]
 80002fe:	e9c0 3305 	strd	r3, r3, [r0, #20]
 8000302:	e9c0 3307 	strd	r3, r3, [r0, #28]
 8000306:	e9c0 4100 	strd	r4, r1, [r0]
 800030a:	6102      	str	r2, [r0, #16]
 800030c:	f001 fb56 	bl	80019bc <HAL_I2C_Init>
 8000310:	b900      	cbnz	r0, 8000314 <MX_I2C2_Init+0x28>
 8000312:	bd10      	pop	{r4, pc}
 8000314:	e8bd 4010 	ldmia.w	sp!, {r4, lr}
 8000318:	f000 b906 	b.w	8000528 <Error_Handler>
 800031c:	20002588 	.word	0x20002588
 8000320:	40005800 	.word	0x40005800
 8000324:	00061a80 	.word	0x00061a80

08000328 <HAL_I2C_MspInit>:
 8000328:	b5f0      	push	{r4, r5, r6, r7, lr}
 800032a:	2400      	movs	r4, #0
 800032c:	6802      	ldr	r2, [r0, #0]
 800032e:	4b1d      	ldr	r3, [pc, #116]	; (80003a4 <HAL_I2C_MspInit+0x7c>)
 8000330:	b087      	sub	sp, #28
 8000332:	429a      	cmp	r2, r3
 8000334:	e9cd 4402 	strd	r4, r4, [sp, #8]
 8000338:	e9cd 4404 	strd	r4, r4, [sp, #16]
 800033c:	d001      	beq.n	8000342 <HAL_I2C_MspInit+0x1a>
 800033e:	b007      	add	sp, #28
 8000340:	bdf0      	pop	{r4, r5, r6, r7, pc}
 8000342:	2203      	movs	r2, #3
 8000344:	f44f 6640 	mov.w	r6, #3072	; 0xc00
 8000348:	2712      	movs	r7, #18
 800034a:	4d17      	ldr	r5, [pc, #92]	; (80003a8 <HAL_I2C_MspInit+0x80>)
 800034c:	a902      	add	r1, sp, #8
 800034e:	69ab      	ldr	r3, [r5, #24]
 8000350:	4816      	ldr	r0, [pc, #88]	; (80003ac <HAL_I2C_MspInit+0x84>)
 8000352:	f043 0308 	orr.w	r3, r3, #8
 8000356:	61ab      	str	r3, [r5, #24]
 8000358:	69ab      	ldr	r3, [r5, #24]
 800035a:	9205      	str	r2, [sp, #20]
 800035c:	f003 0308 	and.w	r3, r3, #8
 8000360:	9300      	str	r3, [sp, #0]
 8000362:	9b00      	ldr	r3, [sp, #0]
 8000364:	e9cd 6702 	strd	r6, r7, [sp, #8]
 8000368:	f001 f912 	bl	8001590 <HAL_GPIO_Init>
 800036c:	69eb      	ldr	r3, [r5, #28]
 800036e:	4622      	mov	r2, r4
 8000370:	f443 0380 	orr.w	r3, r3, #4194304	; 0x400000
 8000374:	61eb      	str	r3, [r5, #28]
 8000376:	69eb      	ldr	r3, [r5, #28]
 8000378:	2101      	movs	r1, #1
 800037a:	f403 0380 	and.w	r3, r3, #4194304	; 0x400000
 800037e:	9301      	str	r3, [sp, #4]
 8000380:	2021      	movs	r0, #33	; 0x21
 8000382:	9b01      	ldr	r3, [sp, #4]
 8000384:	f001 f828 	bl	80013d8 <HAL_NVIC_SetPriority>
 8000388:	2021      	movs	r0, #33	; 0x21
 800038a:	f001 f86f 	bl	800146c <HAL_NVIC_EnableIRQ>
 800038e:	4622      	mov	r2, r4
 8000390:	2101      	movs	r1, #1
 8000392:	2022      	movs	r0, #34	; 0x22
 8000394:	f001 f820 	bl	80013d8 <HAL_NVIC_SetPriority>
 8000398:	2022      	movs	r0, #34	; 0x22
 800039a:	f001 f867 	bl	800146c <HAL_NVIC_EnableIRQ>
 800039e:	b007      	add	sp, #28
 80003a0:	bdf0      	pop	{r4, r5, r6, r7, pc}
 80003a2:	bf00      	nop
 80003a4:	40005800 	.word	0x40005800
 80003a8:	40021000 	.word	0x40021000
 80003ac:	40010c00 	.word	0x40010c00

080003b0 <SystemClock_Config>:
 80003b0:	b5f0      	push	{r4, r5, r6, r7, lr}
 80003b2:	2102      	movs	r1, #2
 80003b4:	2400      	movs	r4, #0
 80003b6:	2601      	movs	r6, #1
 80003b8:	f44f 3780 	mov.w	r7, #65536	; 0x10000
 80003bc:	2501      	movs	r5, #1
 80003be:	f44f 3280 	mov.w	r2, #65536	; 0x10000
 80003c2:	f44f 13e0 	mov.w	r3, #1835008	; 0x1c0000
 80003c6:	b091      	sub	sp, #68	; 0x44
 80003c8:	a806      	add	r0, sp, #24
 80003ca:	e9cd 440b 	strd	r4, r4, [sp, #44]	; 0x2c
 80003ce:	e9cd 4401 	strd	r4, r4, [sp, #4]
 80003d2:	e9cd 4403 	strd	r4, r4, [sp, #12]
 80003d6:	e9cd 6706 	strd	r6, r7, [sp, #24]
 80003da:	e9cd 230e 	strd	r2, r3, [sp, #56]	; 0x38
 80003de:	9409      	str	r4, [sp, #36]	; 0x24
 80003e0:	9400      	str	r4, [sp, #0]
 80003e2:	9408      	str	r4, [sp, #32]
 80003e4:	950a      	str	r5, [sp, #40]	; 0x28
 80003e6:	910d      	str	r1, [sp, #52]	; 0x34
 80003e8:	f002 fbea 	bl	8002bc0 <HAL_RCC_OscConfig>
 80003ec:	b988      	cbnz	r0, 8000412 <SystemClock_Config+0x62>
 80003ee:	260f      	movs	r6, #15
 80003f0:	2702      	movs	r7, #2
 80003f2:	2200      	movs	r2, #0
 80003f4:	f44f 6380 	mov.w	r3, #1024	; 0x400
 80003f8:	2400      	movs	r4, #0
 80003fa:	4668      	mov	r0, sp
 80003fc:	2102      	movs	r1, #2
 80003fe:	e9cd 6700 	strd	r6, r7, [sp]
 8000402:	e9cd 2302 	strd	r2, r3, [sp, #8]
 8000406:	9404      	str	r4, [sp, #16]
 8000408:	f002 fe5c 	bl	80030c4 <HAL_RCC_ClockConfig>
 800040c:	b988      	cbnz	r0, 8000432 <SystemClock_Config+0x82>
 800040e:	b011      	add	sp, #68	; 0x44
 8000410:	bdf0      	pop	{r4, r5, r6, r7, pc}
 8000412:	4622      	mov	r2, r4
 8000414:	f44f 5100 	mov.w	r1, #8192	; 0x2000
 8000418:	480e      	ldr	r0, [pc, #56]	; (8000454 <SystemClock_Config+0xa4>)
 800041a:	f001 fa93 	bl	8001944 <HAL_GPIO_WritePin>
 800041e:	2064      	movs	r0, #100	; 0x64
 8000420:	f000 ffaa 	bl	8001378 <HAL_Delay>
 8000424:	462a      	mov	r2, r5
 8000426:	f44f 5100 	mov.w	r1, #8192	; 0x2000
 800042a:	480a      	ldr	r0, [pc, #40]	; (8000454 <SystemClock_Config+0xa4>)
 800042c:	f001 fa8a 	bl	8001944 <HAL_GPIO_WritePin>
 8000430:	e7dd      	b.n	80003ee <SystemClock_Config+0x3e>
 8000432:	4622      	mov	r2, r4
 8000434:	f44f 5100 	mov.w	r1, #8192	; 0x2000
 8000438:	4806      	ldr	r0, [pc, #24]	; (8000454 <SystemClock_Config+0xa4>)
 800043a:	f001 fa83 	bl	8001944 <HAL_GPIO_WritePin>
 800043e:	2064      	movs	r0, #100	; 0x64
 8000440:	f000 ff9a 	bl	8001378 <HAL_Delay>
 8000444:	2201      	movs	r2, #1
 8000446:	f44f 5100 	mov.w	r1, #8192	; 0x2000
 800044a:	4802      	ldr	r0, [pc, #8]	; (8000454 <SystemClock_Config+0xa4>)
 800044c:	f001 fa7a 	bl	8001944 <HAL_GPIO_WritePin>
 8000450:	b011      	add	sp, #68	; 0x44
 8000452:	bdf0      	pop	{r4, r5, r6, r7, pc}
 8000454:	40011000 	.word	0x40011000

08000458 <main>:
 8000458:	b570      	push	{r4, r5, r6, lr}
 800045a:	f000 ff69 	bl	8001330 <HAL_Init>
 800045e:	f44f 7080 	mov.w	r0, #256	; 0x100
 8000462:	f002 fb95 	bl	8002b90 <HAL_PWR_DisableWakeUpPin>
 8000466:	f7ff ffa3 	bl	80003b0 <SystemClock_Config>
 800046a:	f7ff fe6f 	bl	800014c <MX_GPIO_Init>
 800046e:	f7ff ff3d 	bl	80002ec <MX_I2C2_Init>
 8000472:	f000 f93b 	bl	80006ec <MX_TIM2_Init>
 8000476:	f000 fb55 	bl	8000b24 <ssd1306_init>
 800047a:	f44f 707a 	mov.w	r0, #1000	; 0x3e8
 800047e:	f000 ff7b 	bl	8001378 <HAL_Delay>
 8000482:	4c25      	ldr	r4, [pc, #148]	; (8000518 <main+0xc0>)
 8000484:	f000 fdf0 	bl	8001068 <ssd1306_clear>
 8000488:	f000 fdf6 	bl	8001078 <ssd1306_refresh>
 800048c:	2200      	movs	r2, #0
 800048e:	f44f 5100 	mov.w	r1, #8192	; 0x2000
 8000492:	4822      	ldr	r0, [pc, #136]	; (800051c <main+0xc4>)
 8000494:	f001 fa56 	bl	8001944 <HAL_GPIO_WritePin>
 8000498:	f7ff ff1c 	bl	80002d4 <DisableCaliperInterrupts>
 800049c:	2201      	movs	r2, #1
 800049e:	2140      	movs	r1, #64	; 0x40
 80004a0:	481f      	ldr	r0, [pc, #124]	; (8000520 <main+0xc8>)
 80004a2:	f001 fa4f 	bl	8001944 <HAL_GPIO_WritePin>
 80004a6:	6825      	ldr	r5, [r4, #0]
 80004a8:	f000 ff60 	bl	800136c <HAL_GetTick>
 80004ac:	4603      	mov	r3, r0
 80004ae:	201e      	movs	r0, #30
 80004b0:	616b      	str	r3, [r5, #20]
 80004b2:	f000 ff61 	bl	8001378 <HAL_Delay>
 80004b6:	2201      	movs	r2, #1
 80004b8:	2180      	movs	r1, #128	; 0x80
 80004ba:	4819      	ldr	r0, [pc, #100]	; (8000520 <main+0xc8>)
 80004bc:	f001 fa42 	bl	8001944 <HAL_GPIO_WritePin>
 80004c0:	6865      	ldr	r5, [r4, #4]
 80004c2:	f000 ff53 	bl	800136c <HAL_GetTick>
 80004c6:	4603      	mov	r3, r0
 80004c8:	201e      	movs	r0, #30
 80004ca:	616b      	str	r3, [r5, #20]
 80004cc:	f000 ff54 	bl	8001378 <HAL_Delay>
 80004d0:	2201      	movs	r2, #1
 80004d2:	f44f 7180 	mov.w	r1, #256	; 0x100
 80004d6:	4812      	ldr	r0, [pc, #72]	; (8000520 <main+0xc8>)
 80004d8:	f001 fa34 	bl	8001944 <HAL_GPIO_WritePin>
 80004dc:	68a4      	ldr	r4, [r4, #8]
 80004de:	f000 ff45 	bl	800136c <HAL_GetTick>
 80004e2:	6160      	str	r0, [r4, #20]
 80004e4:	f7ff feea 	bl	80002bc <EnableCaliperInterrupts>
 80004e8:	f000 f97c 	bl	80007e4 <buttons_setup>
 80004ec:	480d      	ldr	r0, [pc, #52]	; (8000524 <main+0xcc>)
 80004ee:	f002 ffd1 	bl	8003494 <HAL_TIM_Base_Start_IT>
 80004f2:	2500      	movs	r5, #0
 80004f4:	462c      	mov	r4, r5
 80004f6:	4e08      	ldr	r6, [pc, #32]	; (8000518 <main+0xc0>)
 80004f8:	b2e8      	uxtb	r0, r5
 80004fa:	f856 1b04 	ldr.w	r1, [r6], #4
 80004fe:	f000 fe15 	bl	800112c <ssd1306_drawhmm>
 8000502:	3501      	adds	r5, #1
 8000504:	4304      	orrs	r4, r0
 8000506:	2d03      	cmp	r5, #3
 8000508:	b2e4      	uxtb	r4, r4
 800050a:	d1f5      	bne.n	80004f8 <main+0xa0>
 800050c:	2c00      	cmp	r4, #0
 800050e:	d0f0      	beq.n	80004f2 <main+0x9a>
 8000510:	f000 fdb2 	bl	8001078 <ssd1306_refresh>
 8000514:	e7ed      	b.n	80004f2 <main+0x9a>
 8000516:	bf00      	nop
 8000518:	200000d0 	.word	0x200000d0
 800051c:	40011000 	.word	0x40011000
 8000520:	40010800 	.word	0x40010800
 8000524:	200025dc 	.word	0x200025dc

08000528 <Error_Handler>:
 8000528:	b510      	push	{r4, lr}
 800052a:	4c09      	ldr	r4, [pc, #36]	; (8000550 <Error_Handler+0x28>)
 800052c:	2200      	movs	r2, #0
 800052e:	4620      	mov	r0, r4
 8000530:	f44f 5100 	mov.w	r1, #8192	; 0x2000
 8000534:	f001 fa06 	bl	8001944 <HAL_GPIO_WritePin>
 8000538:	2064      	movs	r0, #100	; 0x64
 800053a:	f000 ff1d 	bl	8001378 <HAL_Delay>
 800053e:	4620      	mov	r0, r4
 8000540:	e8bd 4010 	ldmia.w	sp!, {r4, lr}
 8000544:	2201      	movs	r2, #1
 8000546:	f44f 5100 	mov.w	r1, #8192	; 0x2000
 800054a:	f001 b9fb 	b.w	8001944 <HAL_GPIO_WritePin>
 800054e:	bf00      	nop
 8000550:	40011000 	.word	0x40011000

08000554 <assert_failed>:
 8000554:	4770      	bx	lr
 8000556:	bf00      	nop

08000558 <HAL_MspInit>:
 8000558:	4b10      	ldr	r3, [pc, #64]	; (800059c <HAL_MspInit+0x44>)
 800055a:	b500      	push	{lr}
 800055c:	699a      	ldr	r2, [r3, #24]
 800055e:	b083      	sub	sp, #12
 8000560:	f042 0201 	orr.w	r2, r2, #1
 8000564:	619a      	str	r2, [r3, #24]
 8000566:	699a      	ldr	r2, [r3, #24]
 8000568:	2005      	movs	r0, #5
 800056a:	f002 0201 	and.w	r2, r2, #1
 800056e:	9200      	str	r2, [sp, #0]
 8000570:	9a00      	ldr	r2, [sp, #0]
 8000572:	69da      	ldr	r2, [r3, #28]
 8000574:	f042 5280 	orr.w	r2, r2, #268435456	; 0x10000000
 8000578:	61da      	str	r2, [r3, #28]
 800057a:	69db      	ldr	r3, [r3, #28]
 800057c:	f003 5380 	and.w	r3, r3, #268435456	; 0x10000000
 8000580:	9301      	str	r3, [sp, #4]
 8000582:	9b01      	ldr	r3, [sp, #4]
 8000584:	f000 ff0a 	bl	800139c <HAL_NVIC_SetPriorityGrouping>
 8000588:	4a05      	ldr	r2, [pc, #20]	; (80005a0 <HAL_MspInit+0x48>)
 800058a:	6853      	ldr	r3, [r2, #4]
 800058c:	f023 63e0 	bic.w	r3, r3, #117440512	; 0x7000000
 8000590:	f043 7300 	orr.w	r3, r3, #33554432	; 0x2000000
 8000594:	6053      	str	r3, [r2, #4]
 8000596:	b003      	add	sp, #12
 8000598:	f85d fb04 	ldr.w	pc, [sp], #4
 800059c:	40021000 	.word	0x40021000
 80005a0:	40010000 	.word	0x40010000

080005a4 <NMI_Handler>:
 80005a4:	4770      	bx	lr
 80005a6:	bf00      	nop

080005a8 <HardFault_Handler>:
 80005a8:	e7fe      	b.n	80005a8 <HardFault_Handler>
 80005aa:	bf00      	nop

080005ac <MemManage_Handler>:
 80005ac:	e7fe      	b.n	80005ac <MemManage_Handler>
 80005ae:	bf00      	nop

080005b0 <BusFault_Handler>:
 80005b0:	e7fe      	b.n	80005b0 <BusFault_Handler>
 80005b2:	bf00      	nop

080005b4 <UsageFault_Handler>:
 80005b4:	e7fe      	b.n	80005b4 <UsageFault_Handler>
 80005b6:	bf00      	nop

080005b8 <SVC_Handler>:
 80005b8:	4770      	bx	lr
 80005ba:	bf00      	nop

080005bc <DebugMon_Handler>:
 80005bc:	4770      	bx	lr
 80005be:	bf00      	nop

080005c0 <PendSV_Handler>:
 80005c0:	4770      	bx	lr
 80005c2:	bf00      	nop

080005c4 <SysTick_Handler>:
 80005c4:	f000 bec6 	b.w	8001354 <HAL_IncTick>

080005c8 <EXTI0_IRQHandler>:
 80005c8:	b508      	push	{r3, lr}
 80005ca:	2001      	movs	r0, #1
 80005cc:	f001 f9ea 	bl	80019a4 <HAL_GPIO_EXTI_IRQHandler>
 80005d0:	4b02      	ldr	r3, [pc, #8]	; (80005dc <EXTI0_IRQHandler+0x14>)
 80005d2:	6818      	ldr	r0, [r3, #0]
 80005d4:	e8bd 4008 	ldmia.w	sp!, {r3, lr}
 80005d8:	f000 b982 	b.w	80008e0 <read_21bit_caliper>
 80005dc:	200000d0 	.word	0x200000d0

080005e0 <EXTI2_IRQHandler>:
 80005e0:	b508      	push	{r3, lr}
 80005e2:	2004      	movs	r0, #4
 80005e4:	f001 f9de 	bl	80019a4 <HAL_GPIO_EXTI_IRQHandler>
 80005e8:	4b02      	ldr	r3, [pc, #8]	; (80005f4 <EXTI2_IRQHandler+0x14>)
 80005ea:	6858      	ldr	r0, [r3, #4]
 80005ec:	e8bd 4008 	ldmia.w	sp!, {r3, lr}
 80005f0:	f000 b976 	b.w	80008e0 <read_21bit_caliper>
 80005f4:	200000d0 	.word	0x200000d0

080005f8 <EXTI4_IRQHandler>:
 80005f8:	b508      	push	{r3, lr}
 80005fa:	2010      	movs	r0, #16
 80005fc:	f001 f9d2 	bl	80019a4 <HAL_GPIO_EXTI_IRQHandler>
 8000600:	4b02      	ldr	r3, [pc, #8]	; (800060c <EXTI4_IRQHandler+0x14>)
 8000602:	6898      	ldr	r0, [r3, #8]
 8000604:	e8bd 4008 	ldmia.w	sp!, {r3, lr}
 8000608:	f000 b96a 	b.w	80008e0 <read_21bit_caliper>
 800060c:	200000d0 	.word	0x200000d0

08000610 <EXTI9_5_IRQHandler>:
 8000610:	b508      	push	{r3, lr}
 8000612:	2080      	movs	r0, #128	; 0x80
 8000614:	f001 f9c6 	bl	80019a4 <HAL_GPIO_EXTI_IRQHandler>
 8000618:	f44f 7080 	mov.w	r0, #256	; 0x100
 800061c:	f001 f9c2 	bl	80019a4 <HAL_GPIO_EXTI_IRQHandler>
 8000620:	e8bd 4008 	ldmia.w	sp!, {r3, lr}
 8000624:	f44f 7000 	mov.w	r0, #512	; 0x200
 8000628:	f001 b9bc 	b.w	80019a4 <HAL_GPIO_EXTI_IRQHandler>

0800062c <TIM2_IRQHandler>:
 800062c:	b538      	push	{r3, r4, r5, lr}
 800062e:	4d10      	ldr	r5, [pc, #64]	; (8000670 <TIM2_IRQHandler+0x44>)
 8000630:	782b      	ldrb	r3, [r5, #0]
 8000632:	b133      	cbz	r3, 8000642 <TIM2_IRQHandler+0x16>
 8000634:	4c0f      	ldr	r4, [pc, #60]	; (8000674 <TIM2_IRQHandler+0x48>)
 8000636:	6823      	ldr	r3, [r4, #0]
 8000638:	3301      	adds	r3, #1
 800063a:	6023      	str	r3, [r4, #0]
 800063c:	6823      	ldr	r3, [r4, #0]
 800063e:	2b04      	cmp	r3, #4
 8000640:	d80f      	bhi.n	8000662 <TIM2_IRQHandler+0x36>
 8000642:	480d      	ldr	r0, [pc, #52]	; (8000678 <TIM2_IRQHandler+0x4c>)
 8000644:	f003 f966 	bl	8003914 <HAL_TIM_IRQHandler>
 8000648:	2160      	movs	r1, #96	; 0x60
 800064a:	480c      	ldr	r0, [pc, #48]	; (800067c <TIM2_IRQHandler+0x50>)
 800064c:	f001 f994 	bl	8001978 <HAL_GPIO_TogglePin>
 8000650:	4b0b      	ldr	r3, [pc, #44]	; (8000680 <TIM2_IRQHandler+0x54>)
 8000652:	781a      	ldrb	r2, [r3, #0]
 8000654:	b912      	cbnz	r2, 800065c <TIM2_IRQHandler+0x30>
 8000656:	2201      	movs	r2, #1
 8000658:	701a      	strb	r2, [r3, #0]
 800065a:	bd38      	pop	{r3, r4, r5, pc}
 800065c:	2200      	movs	r2, #0
 800065e:	701a      	strb	r2, [r3, #0]
 8000660:	bd38      	pop	{r3, r4, r5, pc}
 8000662:	2017      	movs	r0, #23
 8000664:	f000 ff02 	bl	800146c <HAL_NVIC_EnableIRQ>
 8000668:	2300      	movs	r3, #0
 800066a:	702b      	strb	r3, [r5, #0]
 800066c:	6023      	str	r3, [r4, #0]
 800066e:	e7e8      	b.n	8000642 <TIM2_IRQHandler+0x16>
 8000670:	2000257c 	.word	0x2000257c
 8000674:	20002580 	.word	0x20002580
 8000678:	200025dc 	.word	0x200025dc
 800067c:	40010c00 	.word	0x40010c00
 8000680:	2000257d 	.word	0x2000257d

08000684 <I2C2_EV_IRQHandler>:
 8000684:	4801      	ldr	r0, [pc, #4]	; (800068c <I2C2_EV_IRQHandler+0x8>)
 8000686:	f001 bd01 	b.w	800208c <HAL_I2C_EV_IRQHandler>
 800068a:	bf00      	nop
 800068c:	20002588 	.word	0x20002588

08000690 <I2C2_ER_IRQHandler>:
 8000690:	4801      	ldr	r0, [pc, #4]	; (8000698 <I2C2_ER_IRQHandler+0x8>)
 8000692:	f002 b9b5 	b.w	8002a00 <HAL_I2C_ER_IRQHandler>
 8000696:	bf00      	nop
 8000698:	20002588 	.word	0x20002588

0800069c <SystemInit>:
 800069c:	b430      	push	{r4, r5}
 800069e:	f44f 051f 	mov.w	r5, #10420224	; 0x9f0000
 80006a2:	f04f 6400 	mov.w	r4, #134217728	; 0x8000000
 80006a6:	4b0e      	ldr	r3, [pc, #56]	; (80006e0 <SystemInit+0x44>)
 80006a8:	4a0e      	ldr	r2, [pc, #56]	; (80006e4 <SystemInit+0x48>)
 80006aa:	6819      	ldr	r1, [r3, #0]
 80006ac:	480e      	ldr	r0, [pc, #56]	; (80006e8 <SystemInit+0x4c>)
 80006ae:	f041 0101 	orr.w	r1, r1, #1
 80006b2:	6019      	str	r1, [r3, #0]
 80006b4:	6859      	ldr	r1, [r3, #4]
 80006b6:	400a      	ands	r2, r1
 80006b8:	605a      	str	r2, [r3, #4]
 80006ba:	681a      	ldr	r2, [r3, #0]
 80006bc:	f022 7284 	bic.w	r2, r2, #17301504	; 0x1080000
 80006c0:	f422 3280 	bic.w	r2, r2, #65536	; 0x10000
 80006c4:	601a      	str	r2, [r3, #0]
 80006c6:	681a      	ldr	r2, [r3, #0]
 80006c8:	f422 2280 	bic.w	r2, r2, #262144	; 0x40000
 80006cc:	601a      	str	r2, [r3, #0]
 80006ce:	685a      	ldr	r2, [r3, #4]
 80006d0:	f422 02fe 	bic.w	r2, r2, #8323072	; 0x7f0000
 80006d4:	605a      	str	r2, [r3, #4]
 80006d6:	609d      	str	r5, [r3, #8]
 80006d8:	6084      	str	r4, [r0, #8]
 80006da:	bc30      	pop	{r4, r5}
 80006dc:	4770      	bx	lr
 80006de:	bf00      	nop
 80006e0:	40021000 	.word	0x40021000
 80006e4:	f8ff0000 	.word	0xf8ff0000
 80006e8:	e000ed00 	.word	0xe000ed00

080006ec <MX_TIM2_Init>:
 80006ec:	b510      	push	{r4, lr}
 80006ee:	2300      	movs	r3, #0
 80006f0:	f04f 4480 	mov.w	r4, #1073741824	; 0x40000000
 80006f4:	f641 411f 	movw	r1, #7199	; 0x1c1f
 80006f8:	f44f 72fa 	mov.w	r2, #500	; 0x1f4
 80006fc:	4816      	ldr	r0, [pc, #88]	; (8000758 <MX_TIM2_Init+0x6c>)
 80006fe:	b086      	sub	sp, #24
 8000700:	e9cd 3303 	strd	r3, r3, [sp, #12]
 8000704:	e9c0 4100 	strd	r4, r1, [r0]
 8000708:	9302      	str	r3, [sp, #8]
 800070a:	9300      	str	r3, [sp, #0]
 800070c:	9305      	str	r3, [sp, #20]
 800070e:	9301      	str	r3, [sp, #4]
 8000710:	6083      	str	r3, [r0, #8]
 8000712:	6103      	str	r3, [r0, #16]
 8000714:	6183      	str	r3, [r0, #24]
 8000716:	60c2      	str	r2, [r0, #12]
 8000718:	f002 fe10 	bl	800333c <HAL_TIM_Base_Init>
 800071c:	b990      	cbnz	r0, 8000744 <MX_TIM2_Init+0x58>
 800071e:	f44f 5380 	mov.w	r3, #4096	; 0x1000
 8000722:	480d      	ldr	r0, [pc, #52]	; (8000758 <MX_TIM2_Init+0x6c>)
 8000724:	a902      	add	r1, sp, #8
 8000726:	9302      	str	r3, [sp, #8]
 8000728:	f002 fef8 	bl	800351c <HAL_TIM_ConfigClockSource>
 800072c:	b988      	cbnz	r0, 8000752 <MX_TIM2_Init+0x66>
 800072e:	2200      	movs	r2, #0
 8000730:	2300      	movs	r3, #0
 8000732:	4669      	mov	r1, sp
 8000734:	4808      	ldr	r0, [pc, #32]	; (8000758 <MX_TIM2_Init+0x6c>)
 8000736:	e9cd 2300 	strd	r2, r3, [sp]
 800073a:	f003 f995 	bl	8003a68 <HAL_TIMEx_MasterConfigSynchronization>
 800073e:	b920      	cbnz	r0, 800074a <MX_TIM2_Init+0x5e>
 8000740:	b006      	add	sp, #24
 8000742:	bd10      	pop	{r4, pc}
 8000744:	f7ff fef0 	bl	8000528 <Error_Handler>
 8000748:	e7e9      	b.n	800071e <MX_TIM2_Init+0x32>
 800074a:	f7ff feed 	bl	8000528 <Error_Handler>
 800074e:	b006      	add	sp, #24
 8000750:	bd10      	pop	{r4, pc}
 8000752:	f7ff fee9 	bl	8000528 <Error_Handler>
 8000756:	e7ea      	b.n	800072e <MX_TIM2_Init+0x42>
 8000758:	200025dc 	.word	0x200025dc

0800075c <HAL_TIM_Base_MspInit>:
 800075c:	6803      	ldr	r3, [r0, #0]
 800075e:	f1b3 4f80 	cmp.w	r3, #1073741824	; 0x40000000
 8000762:	d000      	beq.n	8000766 <HAL_TIM_Base_MspInit+0xa>
 8000764:	4770      	bx	lr
 8000766:	2200      	movs	r2, #0
 8000768:	f503 3304 	add.w	r3, r3, #135168	; 0x21000
 800076c:	b510      	push	{r4, lr}
 800076e:	69dc      	ldr	r4, [r3, #28]
 8000770:	b082      	sub	sp, #8
 8000772:	f044 0401 	orr.w	r4, r4, #1
 8000776:	61dc      	str	r4, [r3, #28]
 8000778:	69db      	ldr	r3, [r3, #28]
 800077a:	4611      	mov	r1, r2
 800077c:	f003 0301 	and.w	r3, r3, #1
 8000780:	9301      	str	r3, [sp, #4]
 8000782:	201c      	movs	r0, #28
 8000784:	9b01      	ldr	r3, [sp, #4]
 8000786:	f000 fe27 	bl	80013d8 <HAL_NVIC_SetPriority>
 800078a:	201c      	movs	r0, #28
 800078c:	b002      	add	sp, #8
 800078e:	e8bd 4010 	ldmia.w	sp!, {r4, lr}
 8000792:	f000 be6b 	b.w	800146c <HAL_NVIC_EnableIRQ>
 8000796:	bf00      	nop

08000798 <Reset_Handler>:
 8000798:	2100      	movs	r1, #0
 800079a:	e003      	b.n	80007a4 <LoopCopyDataInit>

0800079c <CopyDataInit>:
 800079c:	4b0b      	ldr	r3, [pc, #44]	; (80007cc <LoopFillZerobss+0x14>)
 800079e:	585b      	ldr	r3, [r3, r1]
 80007a0:	5043      	str	r3, [r0, r1]
 80007a2:	3104      	adds	r1, #4

080007a4 <LoopCopyDataInit>:
 80007a4:	480a      	ldr	r0, [pc, #40]	; (80007d0 <LoopFillZerobss+0x18>)
 80007a6:	4b0b      	ldr	r3, [pc, #44]	; (80007d4 <LoopFillZerobss+0x1c>)
 80007a8:	1842      	adds	r2, r0, r1
 80007aa:	429a      	cmp	r2, r3
 80007ac:	d3f6      	bcc.n	800079c <CopyDataInit>
 80007ae:	4a0a      	ldr	r2, [pc, #40]	; (80007d8 <LoopFillZerobss+0x20>)
 80007b0:	e002      	b.n	80007b8 <LoopFillZerobss>

080007b2 <FillZerobss>:
 80007b2:	2300      	movs	r3, #0
 80007b4:	f842 3b04 	str.w	r3, [r2], #4

080007b8 <LoopFillZerobss>:
 80007b8:	4b08      	ldr	r3, [pc, #32]	; (80007dc <LoopFillZerobss+0x24>)
 80007ba:	429a      	cmp	r2, r3
 80007bc:	d3f9      	bcc.n	80007b2 <FillZerobss>
 80007be:	f7ff ff6d 	bl	800069c <SystemInit>
 80007c2:	f003 f9b5 	bl	8003b30 <__libc_init_array>
 80007c6:	f7ff fe47 	bl	8000458 <main>
 80007ca:	4770      	bx	lr
 80007cc:	08003d74 	.word	0x08003d74
 80007d0:	20000000 	.word	0x20000000
 80007d4:	20002560 	.word	0x20002560
 80007d8:	20002560 	.word	0x20002560
 80007dc:	20002628 	.word	0x20002628

080007e0 <ADC1_2_IRQHandler>:
 80007e0:	e7fe      	b.n	80007e0 <ADC1_2_IRQHandler>
	...

080007e4 <buttons_setup>:
 80007e4:	b510      	push	{r4, lr}
 80007e6:	4c07      	ldr	r4, [pc, #28]	; (8000804 <buttons_setup+0x20>)
 80007e8:	2200      	movs	r2, #0
 80007ea:	4620      	mov	r0, r4
 80007ec:	2160      	movs	r1, #96	; 0x60
 80007ee:	f001 f8a9 	bl	8001944 <HAL_GPIO_WritePin>
 80007f2:	2201      	movs	r2, #1
 80007f4:	4620      	mov	r0, r4
 80007f6:	2120      	movs	r1, #32
 80007f8:	f001 f8a4 	bl	8001944 <HAL_GPIO_WritePin>
 80007fc:	2200      	movs	r2, #0
 80007fe:	4b02      	ldr	r3, [pc, #8]	; (8000808 <buttons_setup+0x24>)
 8000800:	701a      	strb	r2, [r3, #0]
 8000802:	bd10      	pop	{r4, pc}
 8000804:	40010c00 	.word	0x40010c00
 8000808:	2000257c 	.word	0x2000257c

0800080c <HAL_GPIO_EXTI_Callback>:
 800080c:	b570      	push	{r4, r5, r6, lr}
 800080e:	4c2f      	ldr	r4, [pc, #188]	; (80008cc <HAL_GPIO_EXTI_Callback+0xc0>)
 8000810:	4a2f      	ldr	r2, [pc, #188]	; (80008d0 <HAL_GPIO_EXTI_Callback+0xc4>)
 8000812:	7823      	ldrb	r3, [r4, #0]
 8000814:	eb03 0343 	add.w	r3, r3, r3, lsl #1
 8000818:	f852 3023 	ldr.w	r3, [r2, r3, lsl #2]
 800081c:	889b      	ldrh	r3, [r3, #4]
 800081e:	b29b      	uxth	r3, r3
 8000820:	4298      	cmp	r0, r3
 8000822:	d03d      	beq.n	80008a0 <HAL_GPIO_EXTI_Callback+0x94>
 8000824:	7823      	ldrb	r3, [r4, #0]
 8000826:	eb03 0343 	add.w	r3, r3, r3, lsl #1
 800082a:	eb02 0383 	add.w	r3, r2, r3, lsl #2
 800082e:	685b      	ldr	r3, [r3, #4]
 8000830:	889b      	ldrh	r3, [r3, #4]
 8000832:	b29b      	uxth	r3, r3
 8000834:	4298      	cmp	r0, r3
 8000836:	d00c      	beq.n	8000852 <HAL_GPIO_EXTI_Callback+0x46>
 8000838:	7823      	ldrb	r3, [r4, #0]
 800083a:	eb03 0343 	add.w	r3, r3, r3, lsl #1
 800083e:	eb02 0383 	add.w	r3, r2, r3, lsl #2
 8000842:	689b      	ldr	r3, [r3, #8]
 8000844:	889b      	ldrh	r3, [r3, #4]
 8000846:	b29b      	uxth	r3, r3
 8000848:	4283      	cmp	r3, r0
 800084a:	bf08      	it	eq
 800084c:	2602      	moveq	r6, #2
 800084e:	d001      	beq.n	8000854 <HAL_GPIO_EXTI_Callback+0x48>
 8000850:	bd70      	pop	{r4, r5, r6, pc}
 8000852:	2601      	movs	r6, #1
 8000854:	7823      	ldrb	r3, [r4, #0]
 8000856:	eb03 0343 	add.w	r3, r3, r3, lsl #1
 800085a:	4433      	add	r3, r6
 800085c:	f852 3023 	ldr.w	r3, [r2, r3, lsl #2]
 8000860:	2b00      	cmp	r3, #0
 8000862:	d0f5      	beq.n	8000850 <HAL_GPIO_EXTI_Callback+0x44>
 8000864:	6818      	ldr	r0, [r3, #0]
 8000866:	8899      	ldrh	r1, [r3, #4]
 8000868:	b289      	uxth	r1, r1
 800086a:	f001 f859 	bl	8001920 <HAL_GPIO_ReadPin>
 800086e:	2801      	cmp	r0, #1
 8000870:	4605      	mov	r5, r0
 8000872:	d1ed      	bne.n	8000850 <HAL_GPIO_EXTI_Callback+0x44>
 8000874:	2017      	movs	r0, #23
 8000876:	f000 fe0d 	bl	8001494 <HAL_NVIC_DisableIRQ>
 800087a:	2200      	movs	r2, #0
 800087c:	4b15      	ldr	r3, [pc, #84]	; (80008d4 <HAL_GPIO_EXTI_Callback+0xc8>)
 800087e:	4916      	ldr	r1, [pc, #88]	; (80008d8 <HAL_GPIO_EXTI_Callback+0xcc>)
 8000880:	700d      	strb	r5, [r1, #0]
 8000882:	601a      	str	r2, [r3, #0]
 8000884:	7823      	ldrb	r3, [r4, #0]
 8000886:	b96b      	cbnz	r3, 80008a4 <HAL_GPIO_EXTI_Callback+0x98>
 8000888:	4b14      	ldr	r3, [pc, #80]	; (80008dc <HAL_GPIO_EXTI_Callback+0xd0>)
 800088a:	f853 3026 	ldr.w	r3, [r3, r6, lsl #2]
 800088e:	899a      	ldrh	r2, [r3, #12]
 8000890:	81da      	strh	r2, [r3, #14]
 8000892:	899a      	ldrh	r2, [r3, #12]
 8000894:	89d9      	ldrh	r1, [r3, #14]
 8000896:	1a52      	subs	r2, r2, r1
 8000898:	b212      	sxth	r2, r2
 800089a:	815a      	strh	r2, [r3, #10]
 800089c:	769d      	strb	r5, [r3, #26]
 800089e:	bd70      	pop	{r4, r5, r6, pc}
 80008a0:	2600      	movs	r6, #0
 80008a2:	e7d7      	b.n	8000854 <HAL_GPIO_EXTI_Callback+0x48>
 80008a4:	4b0d      	ldr	r3, [pc, #52]	; (80008dc <HAL_GPIO_EXTI_Callback+0xd0>)
 80008a6:	f853 2026 	ldr.w	r2, [r3, r6, lsl #2]
 80008aa:	8993      	ldrh	r3, [r2, #12]
 80008ac:	89d1      	ldrh	r1, [r2, #14]
 80008ae:	b21b      	sxth	r3, r3
 80008b0:	b209      	sxth	r1, r1
 80008b2:	440b      	add	r3, r1
 80008b4:	eb03 73d3 	add.w	r3, r3, r3, lsr #31
 80008b8:	f343 034f 	sbfx	r3, r3, #1, #16
 80008bc:	81d3      	strh	r3, [r2, #14]
 80008be:	8993      	ldrh	r3, [r2, #12]
 80008c0:	89d1      	ldrh	r1, [r2, #14]
 80008c2:	1a5b      	subs	r3, r3, r1
 80008c4:	b21b      	sxth	r3, r3
 80008c6:	8153      	strh	r3, [r2, #10]
 80008c8:	7695      	strb	r5, [r2, #26]
 80008ca:	bd70      	pop	{r4, r5, r6, pc}
 80008cc:	2000257d 	.word	0x2000257d
 80008d0:	20000064 	.word	0x20000064
 80008d4:	20002580 	.word	0x20002580
 80008d8:	2000257c 	.word	0x2000257c
 80008dc:	200000d0 	.word	0x200000d0

080008e0 <read_21bit_caliper>:
 80008e0:	b510      	push	{r4, lr}
 80008e2:	4604      	mov	r4, r0
 80008e4:	f000 fd42 	bl	800136c <HAL_GetTick>
 80008e8:	6963      	ldr	r3, [r4, #20]
 80008ea:	6160      	str	r0, [r4, #20]
 80008ec:	1ac0      	subs	r0, r0, r3
 80008ee:	285a      	cmp	r0, #90	; 0x5a
 80008f0:	d905      	bls.n	80008fe <read_21bit_caliper+0x1e>
 80008f2:	2300      	movs	r3, #0
 80008f4:	2201      	movs	r2, #1
 80008f6:	7662      	strb	r2, [r4, #25]
 80008f8:	7623      	strb	r3, [r4, #24]
 80008fa:	81a3      	strh	r3, [r4, #12]
 80008fc:	bd10      	pop	{r4, pc}
 80008fe:	7e63      	ldrb	r3, [r4, #25]
 8000900:	2b00      	cmp	r3, #0
 8000902:	d0fb      	beq.n	80008fc <read_21bit_caliper+0x1c>
 8000904:	7e23      	ldrb	r3, [r4, #24]
 8000906:	3301      	adds	r3, #1
 8000908:	b2db      	uxtb	r3, r3
 800090a:	7623      	strb	r3, [r4, #24]
 800090c:	7e23      	ldrb	r3, [r4, #24]
 800090e:	b113      	cbz	r3, 8000916 <read_21bit_caliper+0x36>
 8000910:	7e23      	ldrb	r3, [r4, #24]
 8000912:	2b14      	cmp	r3, #20
 8000914:	d922      	bls.n	800095c <read_21bit_caliper+0x7c>
 8000916:	7e23      	ldrb	r3, [r4, #24]
 8000918:	2b15      	cmp	r3, #21
 800091a:	d1ef      	bne.n	80008fc <read_21bit_caliper+0x1c>
 800091c:	6820      	ldr	r0, [r4, #0]
 800091e:	88e1      	ldrh	r1, [r4, #6]
 8000920:	b289      	uxth	r1, r1
 8000922:	f000 fffd 	bl	8001920 <HAL_GPIO_ReadPin>
 8000926:	2801      	cmp	r0, #1
 8000928:	d028      	beq.n	800097c <read_21bit_caliper+0x9c>
 800092a:	89a2      	ldrh	r2, [r4, #12]
 800092c:	8a23      	ldrh	r3, [r4, #16]
 800092e:	fb03 f302 	mul.w	r3, r3, r2
 8000932:	b21b      	sxth	r3, r3
 8000934:	81a3      	strh	r3, [r4, #12]
 8000936:	8962      	ldrh	r2, [r4, #10]
 8000938:	89a3      	ldrh	r3, [r4, #12]
 800093a:	89e1      	ldrh	r1, [r4, #14]
 800093c:	b21b      	sxth	r3, r3
 800093e:	b209      	sxth	r1, r1
 8000940:	b212      	sxth	r2, r2
 8000942:	1a5b      	subs	r3, r3, r1
 8000944:	429a      	cmp	r2, r3
 8000946:	d006      	beq.n	8000956 <read_21bit_caliper+0x76>
 8000948:	2201      	movs	r2, #1
 800094a:	89a3      	ldrh	r3, [r4, #12]
 800094c:	89e1      	ldrh	r1, [r4, #14]
 800094e:	1a5b      	subs	r3, r3, r1
 8000950:	b21b      	sxth	r3, r3
 8000952:	8163      	strh	r3, [r4, #10]
 8000954:	76a2      	strb	r2, [r4, #26]
 8000956:	2300      	movs	r3, #0
 8000958:	7663      	strb	r3, [r4, #25]
 800095a:	bd10      	pop	{r4, pc}
 800095c:	6820      	ldr	r0, [r4, #0]
 800095e:	88e1      	ldrh	r1, [r4, #6]
 8000960:	b289      	uxth	r1, r1
 8000962:	f000 ffdd 	bl	8001920 <HAL_GPIO_ReadPin>
 8000966:	2801      	cmp	r0, #1
 8000968:	d1d5      	bne.n	8000916 <read_21bit_caliper+0x36>
 800096a:	7e23      	ldrb	r3, [r4, #24]
 800096c:	89a2      	ldrh	r2, [r4, #12]
 800096e:	3b01      	subs	r3, #1
 8000970:	fa00 f303 	lsl.w	r3, r0, r3
 8000974:	4313      	orrs	r3, r2
 8000976:	b21b      	sxth	r3, r3
 8000978:	81a3      	strh	r3, [r4, #12]
 800097a:	e7cc      	b.n	8000916 <read_21bit_caliper+0x36>
 800097c:	89a3      	ldrh	r3, [r4, #12]
 800097e:	8a22      	ldrh	r2, [r4, #16]
 8000980:	b21b      	sxth	r3, r3
 8000982:	425b      	negs	r3, r3
 8000984:	fb03 f302 	mul.w	r3, r3, r2
 8000988:	b21b      	sxth	r3, r3
 800098a:	81a3      	strh	r3, [r4, #12]
 800098c:	e7d3      	b.n	8000936 <read_21bit_caliper+0x56>
 800098e:	bf00      	nop

08000990 <ssd1306_drawchar.constprop.2>:
 8000990:	e92d 4ff0 	stmdb	sp!, {r4, r5, r6, r7, r8, r9, sl, fp, lr}
 8000994:	4b30      	ldr	r3, [pc, #192]	; (8000a58 <ssd1306_drawchar.constprop.2+0xc8>)
 8000996:	b085      	sub	sp, #20
 8000998:	681d      	ldr	r5, [r3, #0]
 800099a:	9003      	str	r0, [sp, #12]
 800099c:	786b      	ldrb	r3, [r5, #1]
 800099e:	2b00      	cmp	r3, #0
 80009a0:	d052      	beq.n	8000a48 <ssd1306_drawchar.constprop.2+0xb8>
 80009a2:	2200      	movs	r2, #0
 80009a4:	4617      	mov	r7, r2
 80009a6:	492d      	ldr	r1, [pc, #180]	; (8000a5c <ssd1306_drawchar.constprop.2+0xcc>)
 80009a8:	782e      	ldrb	r6, [r5, #0]
 80009aa:	880c      	ldrh	r4, [r1, #0]
 80009ac:	f8b1 e002 	ldrh.w	lr, [r1, #2]
 80009b0:	f8df a0ac 	ldr.w	sl, [pc, #172]	; 8000a60 <ssd1306_drawchar.constprop.2+0xd0>
 80009b4:	9402      	str	r4, [sp, #8]
 80009b6:	f1a0 0920 	sub.w	r9, r0, #32
 80009ba:	2e00      	cmp	r6, #0
 80009bc:	d03d      	beq.n	8000a3a <ssd1306_drawchar.constprop.2+0xaa>
 80009be:	2101      	movs	r1, #1
 80009c0:	f00e 0807 	and.w	r8, lr, #7
 80009c4:	fa01 f808 	lsl.w	r8, r1, r8
 80009c8:	fa4f f888 	sxtb.w	r8, r8
 80009cc:	ea4f 0cde 	mov.w	ip, lr, lsr #3
 80009d0:	f1be 0f3f 	cmp.w	lr, #63	; 0x3f
 80009d4:	ea6f 0b08 	mvn.w	fp, r8
 80009d8:	ea4f 1ccc 	mov.w	ip, ip, lsl #7
 80009dc:	d82c      	bhi.n	8000a38 <ssd1306_drawchar.constprop.2+0xa8>
 80009de:	2400      	movs	r4, #0
 80009e0:	9b02      	ldr	r3, [sp, #8]
 80009e2:	9701      	str	r7, [sp, #4]
 80009e4:	e011      	b.n	8000a0a <ssd1306_drawchar.constprop.2+0x7a>
 80009e6:	2b7f      	cmp	r3, #127	; 0x7f
 80009e8:	eb03 010c 	add.w	r1, r3, ip
 80009ec:	d806      	bhi.n	80009fc <ssd1306_drawchar.constprop.2+0x6c>
 80009ee:	f81a 0001 	ldrb.w	r0, [sl, r1]
 80009f2:	ea0b 0000 	and.w	r0, fp, r0
 80009f6:	f80a 0001 	strb.w	r0, [sl, r1]
 80009fa:	782e      	ldrb	r6, [r5, #0]
 80009fc:	3401      	adds	r4, #1
 80009fe:	3301      	adds	r3, #1
 8000a00:	42a6      	cmp	r6, r4
 8000a02:	b29b      	uxth	r3, r3
 8000a04:	f102 0201 	add.w	r2, r2, #1
 8000a08:	d922      	bls.n	8000a50 <ssd1306_drawchar.constprop.2+0xc0>
 8000a0a:	78a8      	ldrb	r0, [r5, #2]
 8000a0c:	686f      	ldr	r7, [r5, #4]
 8000a0e:	08d1      	lsrs	r1, r2, #3
 8000a10:	fb09 7000 	mla	r0, r9, r0, r7
 8000a14:	5c41      	ldrb	r1, [r0, r1]
 8000a16:	f002 0007 	and.w	r0, r2, #7
 8000a1a:	4101      	asrs	r1, r0
 8000a1c:	07c9      	lsls	r1, r1, #31
 8000a1e:	d5e2      	bpl.n	80009e6 <ssd1306_drawchar.constprop.2+0x56>
 8000a20:	2b7f      	cmp	r3, #127	; 0x7f
 8000a22:	d8eb      	bhi.n	80009fc <ssd1306_drawchar.constprop.2+0x6c>
 8000a24:	eb03 000c 	add.w	r0, r3, ip
 8000a28:	f81a 1000 	ldrb.w	r1, [sl, r0]
 8000a2c:	ea48 0101 	orr.w	r1, r8, r1
 8000a30:	f80a 1000 	strb.w	r1, [sl, r0]
 8000a34:	782e      	ldrb	r6, [r5, #0]
 8000a36:	e7e1      	b.n	80009fc <ssd1306_drawchar.constprop.2+0x6c>
 8000a38:	4432      	add	r2, r6
 8000a3a:	3701      	adds	r7, #1
 8000a3c:	f10e 0e01 	add.w	lr, lr, #1
 8000a40:	429f      	cmp	r7, r3
 8000a42:	fa1f fe8e 	uxth.w	lr, lr
 8000a46:	d3b8      	bcc.n	80009ba <ssd1306_drawchar.constprop.2+0x2a>
 8000a48:	9803      	ldr	r0, [sp, #12]
 8000a4a:	b005      	add	sp, #20
 8000a4c:	e8bd 8ff0 	ldmia.w	sp!, {r4, r5, r6, r7, r8, r9, sl, fp, pc}
 8000a50:	9f01      	ldr	r7, [sp, #4]
 8000a52:	786b      	ldrb	r3, [r5, #1]
 8000a54:	e7f1      	b.n	8000a3a <ssd1306_drawchar.constprop.2+0xaa>
 8000a56:	bf00      	nop
 8000a58:	200000dc 	.word	0x200000dc
 8000a5c:	20002584 	.word	0x20002584
 8000a60:	20002158 	.word	0x20002158

08000a64 <ssd1306_drawchar.constprop.1>:
 8000a64:	e92d 4ff0 	stmdb	sp!, {r4, r5, r6, r7, r8, r9, sl, fp, lr}
 8000a68:	4b2b      	ldr	r3, [pc, #172]	; (8000b18 <ssd1306_drawchar.constprop.1+0xb4>)
 8000a6a:	b083      	sub	sp, #12
 8000a6c:	681e      	ldr	r6, [r3, #0]
 8000a6e:	7873      	ldrb	r3, [r6, #1]
 8000a70:	2b00      	cmp	r3, #0
 8000a72:	d04a      	beq.n	8000b0a <ssd1306_drawchar.constprop.1+0xa6>
 8000a74:	2200      	movs	r2, #0
 8000a76:	f04f 0a01 	mov.w	sl, #1
 8000a7a:	4690      	mov	r8, r2
 8000a7c:	4927      	ldr	r1, [pc, #156]	; (8000b1c <ssd1306_drawchar.constprop.1+0xb8>)
 8000a7e:	7834      	ldrb	r4, [r6, #0]
 8000a80:	8808      	ldrh	r0, [r1, #0]
 8000a82:	884f      	ldrh	r7, [r1, #2]
 8000a84:	f8df e098 	ldr.w	lr, [pc, #152]	; 8000b20 <ssd1306_drawchar.constprop.1+0xbc>
 8000a88:	9001      	str	r0, [sp, #4]
 8000a8a:	b3c4      	cbz	r4, 8000afe <ssd1306_drawchar.constprop.1+0x9a>
 8000a8c:	f007 0c07 	and.w	ip, r7, #7
 8000a90:	fa0a fc0c 	lsl.w	ip, sl, ip
 8000a94:	fa4f fc8c 	sxtb.w	ip, ip
 8000a98:	08fd      	lsrs	r5, r7, #3
 8000a9a:	2f3f      	cmp	r7, #63	; 0x3f
 8000a9c:	ea6f 090c 	mvn.w	r9, ip
 8000aa0:	ea4f 15c5 	mov.w	r5, r5, lsl #7
 8000aa4:	d82a      	bhi.n	8000afc <ssd1306_drawchar.constprop.1+0x98>
 8000aa6:	2000      	movs	r0, #0
 8000aa8:	9b01      	ldr	r3, [sp, #4]
 8000aaa:	e011      	b.n	8000ad0 <ssd1306_drawchar.constprop.1+0x6c>
 8000aac:	2b7f      	cmp	r3, #127	; 0x7f
 8000aae:	eb03 0105 	add.w	r1, r3, r5
 8000ab2:	d806      	bhi.n	8000ac2 <ssd1306_drawchar.constprop.1+0x5e>
 8000ab4:	f81e 4001 	ldrb.w	r4, [lr, r1]
 8000ab8:	ea09 0404 	and.w	r4, r9, r4
 8000abc:	f80e 4001 	strb.w	r4, [lr, r1]
 8000ac0:	7834      	ldrb	r4, [r6, #0]
 8000ac2:	3001      	adds	r0, #1
 8000ac4:	3301      	adds	r3, #1
 8000ac6:	4284      	cmp	r4, r0
 8000ac8:	b29b      	uxth	r3, r3
 8000aca:	f102 0201 	add.w	r2, r2, #1
 8000ace:	d920      	bls.n	8000b12 <ssd1306_drawchar.constprop.1+0xae>
 8000ad0:	6871      	ldr	r1, [r6, #4]
 8000ad2:	ea4f 0bd2 	mov.w	fp, r2, lsr #3
 8000ad6:	f811 100b 	ldrb.w	r1, [r1, fp]
 8000ada:	f002 0b07 	and.w	fp, r2, #7
 8000ade:	fa41 f10b 	asr.w	r1, r1, fp
 8000ae2:	07c9      	lsls	r1, r1, #31
 8000ae4:	d5e2      	bpl.n	8000aac <ssd1306_drawchar.constprop.1+0x48>
 8000ae6:	2b7f      	cmp	r3, #127	; 0x7f
 8000ae8:	d8eb      	bhi.n	8000ac2 <ssd1306_drawchar.constprop.1+0x5e>
 8000aea:	195c      	adds	r4, r3, r5
 8000aec:	f81e 1004 	ldrb.w	r1, [lr, r4]
 8000af0:	ea4c 0101 	orr.w	r1, ip, r1
 8000af4:	f80e 1004 	strb.w	r1, [lr, r4]
 8000af8:	7834      	ldrb	r4, [r6, #0]
 8000afa:	e7e2      	b.n	8000ac2 <ssd1306_drawchar.constprop.1+0x5e>
 8000afc:	4422      	add	r2, r4
 8000afe:	f108 0801 	add.w	r8, r8, #1
 8000b02:	3701      	adds	r7, #1
 8000b04:	4598      	cmp	r8, r3
 8000b06:	b2bf      	uxth	r7, r7
 8000b08:	d3bf      	bcc.n	8000a8a <ssd1306_drawchar.constprop.1+0x26>
 8000b0a:	2020      	movs	r0, #32
 8000b0c:	b003      	add	sp, #12
 8000b0e:	e8bd 8ff0 	ldmia.w	sp!, {r4, r5, r6, r7, r8, r9, sl, fp, pc}
 8000b12:	7873      	ldrb	r3, [r6, #1]
 8000b14:	e7f3      	b.n	8000afe <ssd1306_drawchar.constprop.1+0x9a>
 8000b16:	bf00      	nop
 8000b18:	200000dc 	.word	0x200000dc
 8000b1c:	20002584 	.word	0x20002584
 8000b20:	20002158 	.word	0x20002158

08000b24 <ssd1306_init>:
 8000b24:	2178      	movs	r1, #120	; 0x78
 8000b26:	2301      	movs	r3, #1
 8000b28:	e92d 43f0 	stmdb	sp!, {r4, r5, r6, r7, r8, r9, lr}
 8000b2c:	26ae      	movs	r6, #174	; 0xae
 8000b2e:	b085      	sub	sp, #20
 8000b30:	4cc9      	ldr	r4, [pc, #804]	; (8000e58 <ssd1306_init+0x334>)
 8000b32:	f10d 050f 	add.w	r5, sp, #15
 8000b36:	e9cd 5300 	strd	r5, r3, [sp]
 8000b3a:	2200      	movs	r2, #0
 8000b3c:	48c7      	ldr	r0, [pc, #796]	; (8000e5c <ssd1306_init+0x338>)
 8000b3e:	7021      	strb	r1, [r4, #0]
 8000b40:	f88d 600f 	strb.w	r6, [sp, #15]
 8000b44:	f001 f880 	bl	8001c48 <HAL_I2C_Mem_Write_IT>
 8000b48:	4fc4      	ldr	r7, [pc, #784]	; (8000e5c <ssd1306_init+0x338>)
 8000b4a:	4638      	mov	r0, r7
 8000b4c:	f002 f81c 	bl	8002b88 <HAL_I2C_GetState>
 8000b50:	2820      	cmp	r0, #32
 8000b52:	4606      	mov	r6, r0
 8000b54:	d1f9      	bne.n	8000b4a <ssd1306_init+0x26>
 8000b56:	2301      	movs	r3, #1
 8000b58:	e9cd 5300 	strd	r5, r3, [sp]
 8000b5c:	2200      	movs	r2, #0
 8000b5e:	7821      	ldrb	r1, [r4, #0]
 8000b60:	48be      	ldr	r0, [pc, #760]	; (8000e5c <ssd1306_init+0x338>)
 8000b62:	f88d 600f 	strb.w	r6, [sp, #15]
 8000b66:	f001 f86f 	bl	8001c48 <HAL_I2C_Mem_Write_IT>
 8000b6a:	4ebc      	ldr	r6, [pc, #752]	; (8000e5c <ssd1306_init+0x338>)
 8000b6c:	4630      	mov	r0, r6
 8000b6e:	f002 f80b 	bl	8002b88 <HAL_I2C_GetState>
 8000b72:	2820      	cmp	r0, #32
 8000b74:	d1fa      	bne.n	8000b6c <ssd1306_init+0x48>
 8000b76:	2301      	movs	r3, #1
 8000b78:	2610      	movs	r6, #16
 8000b7a:	e9cd 5300 	strd	r5, r3, [sp]
 8000b7e:	2200      	movs	r2, #0
 8000b80:	7821      	ldrb	r1, [r4, #0]
 8000b82:	48b6      	ldr	r0, [pc, #728]	; (8000e5c <ssd1306_init+0x338>)
 8000b84:	f88d 600f 	strb.w	r6, [sp, #15]
 8000b88:	f001 f85e 	bl	8001c48 <HAL_I2C_Mem_Write_IT>
 8000b8c:	4eb3      	ldr	r6, [pc, #716]	; (8000e5c <ssd1306_init+0x338>)
 8000b8e:	4630      	mov	r0, r6
 8000b90:	f001 fffa 	bl	8002b88 <HAL_I2C_GetState>
 8000b94:	2820      	cmp	r0, #32
 8000b96:	d1fa      	bne.n	8000b8e <ssd1306_init+0x6a>
 8000b98:	2301      	movs	r3, #1
 8000b9a:	26b0      	movs	r6, #176	; 0xb0
 8000b9c:	e9cd 5300 	strd	r5, r3, [sp]
 8000ba0:	2200      	movs	r2, #0
 8000ba2:	7821      	ldrb	r1, [r4, #0]
 8000ba4:	48ad      	ldr	r0, [pc, #692]	; (8000e5c <ssd1306_init+0x338>)
 8000ba6:	f88d 600f 	strb.w	r6, [sp, #15]
 8000baa:	f001 f84d 	bl	8001c48 <HAL_I2C_Mem_Write_IT>
 8000bae:	4eab      	ldr	r6, [pc, #684]	; (8000e5c <ssd1306_init+0x338>)
 8000bb0:	4630      	mov	r0, r6
 8000bb2:	f001 ffe9 	bl	8002b88 <HAL_I2C_GetState>
 8000bb6:	2820      	cmp	r0, #32
 8000bb8:	d1fa      	bne.n	8000bb0 <ssd1306_init+0x8c>
 8000bba:	2301      	movs	r3, #1
 8000bbc:	26c8      	movs	r6, #200	; 0xc8
 8000bbe:	e9cd 5300 	strd	r5, r3, [sp]
 8000bc2:	2200      	movs	r2, #0
 8000bc4:	7821      	ldrb	r1, [r4, #0]
 8000bc6:	48a5      	ldr	r0, [pc, #660]	; (8000e5c <ssd1306_init+0x338>)
 8000bc8:	f88d 600f 	strb.w	r6, [sp, #15]
 8000bcc:	f001 f83c 	bl	8001c48 <HAL_I2C_Mem_Write_IT>
 8000bd0:	4ea2      	ldr	r6, [pc, #648]	; (8000e5c <ssd1306_init+0x338>)
 8000bd2:	4630      	mov	r0, r6
 8000bd4:	f001 ffd8 	bl	8002b88 <HAL_I2C_GetState>
 8000bd8:	2820      	cmp	r0, #32
 8000bda:	d1fa      	bne.n	8000bd2 <ssd1306_init+0xae>
 8000bdc:	2301      	movs	r3, #1
 8000bde:	2602      	movs	r6, #2
 8000be0:	e9cd 5300 	strd	r5, r3, [sp]
 8000be4:	2200      	movs	r2, #0
 8000be6:	7821      	ldrb	r1, [r4, #0]
 8000be8:	489c      	ldr	r0, [pc, #624]	; (8000e5c <ssd1306_init+0x338>)
 8000bea:	f88d 600f 	strb.w	r6, [sp, #15]
 8000bee:	f001 f82b 	bl	8001c48 <HAL_I2C_Mem_Write_IT>
 8000bf2:	4e9a      	ldr	r6, [pc, #616]	; (8000e5c <ssd1306_init+0x338>)
 8000bf4:	4630      	mov	r0, r6
 8000bf6:	f001 ffc7 	bl	8002b88 <HAL_I2C_GetState>
 8000bfa:	2820      	cmp	r0, #32
 8000bfc:	d1fa      	bne.n	8000bf4 <ssd1306_init+0xd0>
 8000bfe:	2301      	movs	r3, #1
 8000c00:	2610      	movs	r6, #16
 8000c02:	e9cd 5300 	strd	r5, r3, [sp]
 8000c06:	2200      	movs	r2, #0
 8000c08:	7821      	ldrb	r1, [r4, #0]
 8000c0a:	4894      	ldr	r0, [pc, #592]	; (8000e5c <ssd1306_init+0x338>)
 8000c0c:	f88d 600f 	strb.w	r6, [sp, #15]
 8000c10:	f001 f81a 	bl	8001c48 <HAL_I2C_Mem_Write_IT>
 8000c14:	4e91      	ldr	r6, [pc, #580]	; (8000e5c <ssd1306_init+0x338>)
 8000c16:	4630      	mov	r0, r6
 8000c18:	f001 ffb6 	bl	8002b88 <HAL_I2C_GetState>
 8000c1c:	2820      	cmp	r0, #32
 8000c1e:	d1fa      	bne.n	8000c16 <ssd1306_init+0xf2>
 8000c20:	2301      	movs	r3, #1
 8000c22:	2640      	movs	r6, #64	; 0x40
 8000c24:	e9cd 5300 	strd	r5, r3, [sp]
 8000c28:	2200      	movs	r2, #0
 8000c2a:	7821      	ldrb	r1, [r4, #0]
 8000c2c:	488b      	ldr	r0, [pc, #556]	; (8000e5c <ssd1306_init+0x338>)
 8000c2e:	f88d 600f 	strb.w	r6, [sp, #15]
 8000c32:	f001 f809 	bl	8001c48 <HAL_I2C_Mem_Write_IT>
 8000c36:	4e89      	ldr	r6, [pc, #548]	; (8000e5c <ssd1306_init+0x338>)
 8000c38:	4630      	mov	r0, r6
 8000c3a:	f001 ffa5 	bl	8002b88 <HAL_I2C_GetState>
 8000c3e:	2820      	cmp	r0, #32
 8000c40:	d1fa      	bne.n	8000c38 <ssd1306_init+0x114>
 8000c42:	2301      	movs	r3, #1
 8000c44:	2681      	movs	r6, #129	; 0x81
 8000c46:	e9cd 5300 	strd	r5, r3, [sp]
 8000c4a:	2200      	movs	r2, #0
 8000c4c:	7821      	ldrb	r1, [r4, #0]
 8000c4e:	4883      	ldr	r0, [pc, #524]	; (8000e5c <ssd1306_init+0x338>)
 8000c50:	f88d 600f 	strb.w	r6, [sp, #15]
 8000c54:	f000 fff8 	bl	8001c48 <HAL_I2C_Mem_Write_IT>
 8000c58:	4e80      	ldr	r6, [pc, #512]	; (8000e5c <ssd1306_init+0x338>)
 8000c5a:	4630      	mov	r0, r6
 8000c5c:	f001 ff94 	bl	8002b88 <HAL_I2C_GetState>
 8000c60:	2820      	cmp	r0, #32
 8000c62:	d1fa      	bne.n	8000c5a <ssd1306_init+0x136>
 8000c64:	2301      	movs	r3, #1
 8000c66:	26ff      	movs	r6, #255	; 0xff
 8000c68:	e9cd 5300 	strd	r5, r3, [sp]
 8000c6c:	2200      	movs	r2, #0
 8000c6e:	7821      	ldrb	r1, [r4, #0]
 8000c70:	487a      	ldr	r0, [pc, #488]	; (8000e5c <ssd1306_init+0x338>)
 8000c72:	f88d 600f 	strb.w	r6, [sp, #15]
 8000c76:	f000 ffe7 	bl	8001c48 <HAL_I2C_Mem_Write_IT>
 8000c7a:	4e78      	ldr	r6, [pc, #480]	; (8000e5c <ssd1306_init+0x338>)
 8000c7c:	4630      	mov	r0, r6
 8000c7e:	f001 ff83 	bl	8002b88 <HAL_I2C_GetState>
 8000c82:	2820      	cmp	r0, #32
 8000c84:	d1fa      	bne.n	8000c7c <ssd1306_init+0x158>
 8000c86:	2301      	movs	r3, #1
 8000c88:	26a1      	movs	r6, #161	; 0xa1
 8000c8a:	e9cd 5300 	strd	r5, r3, [sp]
 8000c8e:	2200      	movs	r2, #0
 8000c90:	7821      	ldrb	r1, [r4, #0]
 8000c92:	4872      	ldr	r0, [pc, #456]	; (8000e5c <ssd1306_init+0x338>)
 8000c94:	f88d 600f 	strb.w	r6, [sp, #15]
 8000c98:	f000 ffd6 	bl	8001c48 <HAL_I2C_Mem_Write_IT>
 8000c9c:	4e6f      	ldr	r6, [pc, #444]	; (8000e5c <ssd1306_init+0x338>)
 8000c9e:	4630      	mov	r0, r6
 8000ca0:	f001 ff72 	bl	8002b88 <HAL_I2C_GetState>
 8000ca4:	2820      	cmp	r0, #32
 8000ca6:	d1fa      	bne.n	8000c9e <ssd1306_init+0x17a>
 8000ca8:	2301      	movs	r3, #1
 8000caa:	26a6      	movs	r6, #166	; 0xa6
 8000cac:	e9cd 5300 	strd	r5, r3, [sp]
 8000cb0:	2200      	movs	r2, #0
 8000cb2:	7821      	ldrb	r1, [r4, #0]
 8000cb4:	4869      	ldr	r0, [pc, #420]	; (8000e5c <ssd1306_init+0x338>)
 8000cb6:	f88d 600f 	strb.w	r6, [sp, #15]
 8000cba:	f000 ffc5 	bl	8001c48 <HAL_I2C_Mem_Write_IT>
 8000cbe:	4e67      	ldr	r6, [pc, #412]	; (8000e5c <ssd1306_init+0x338>)
 8000cc0:	4630      	mov	r0, r6
 8000cc2:	f001 ff61 	bl	8002b88 <HAL_I2C_GetState>
 8000cc6:	2820      	cmp	r0, #32
 8000cc8:	d1fa      	bne.n	8000cc0 <ssd1306_init+0x19c>
 8000cca:	2301      	movs	r3, #1
 8000ccc:	26a8      	movs	r6, #168	; 0xa8
 8000cce:	e9cd 5300 	strd	r5, r3, [sp]
 8000cd2:	2200      	movs	r2, #0
 8000cd4:	7821      	ldrb	r1, [r4, #0]
 8000cd6:	4861      	ldr	r0, [pc, #388]	; (8000e5c <ssd1306_init+0x338>)
 8000cd8:	f88d 600f 	strb.w	r6, [sp, #15]
 8000cdc:	f000 ffb4 	bl	8001c48 <HAL_I2C_Mem_Write_IT>
 8000ce0:	4e5e      	ldr	r6, [pc, #376]	; (8000e5c <ssd1306_init+0x338>)
 8000ce2:	4630      	mov	r0, r6
 8000ce4:	f001 ff50 	bl	8002b88 <HAL_I2C_GetState>
 8000ce8:	2820      	cmp	r0, #32
 8000cea:	d1fa      	bne.n	8000ce2 <ssd1306_init+0x1be>
 8000cec:	2301      	movs	r3, #1
 8000cee:	263f      	movs	r6, #63	; 0x3f
 8000cf0:	e9cd 5300 	strd	r5, r3, [sp]
 8000cf4:	2200      	movs	r2, #0
 8000cf6:	7821      	ldrb	r1, [r4, #0]
 8000cf8:	4858      	ldr	r0, [pc, #352]	; (8000e5c <ssd1306_init+0x338>)
 8000cfa:	f88d 600f 	strb.w	r6, [sp, #15]
 8000cfe:	f000 ffa3 	bl	8001c48 <HAL_I2C_Mem_Write_IT>
 8000d02:	4e56      	ldr	r6, [pc, #344]	; (8000e5c <ssd1306_init+0x338>)
 8000d04:	4630      	mov	r0, r6
 8000d06:	f001 ff3f 	bl	8002b88 <HAL_I2C_GetState>
 8000d0a:	2820      	cmp	r0, #32
 8000d0c:	d1fa      	bne.n	8000d04 <ssd1306_init+0x1e0>
 8000d0e:	2301      	movs	r3, #1
 8000d10:	26a4      	movs	r6, #164	; 0xa4
 8000d12:	e9cd 5300 	strd	r5, r3, [sp]
 8000d16:	2200      	movs	r2, #0
 8000d18:	7821      	ldrb	r1, [r4, #0]
 8000d1a:	4850      	ldr	r0, [pc, #320]	; (8000e5c <ssd1306_init+0x338>)
 8000d1c:	f88d 600f 	strb.w	r6, [sp, #15]
 8000d20:	f000 ff92 	bl	8001c48 <HAL_I2C_Mem_Write_IT>
 8000d24:	4e4d      	ldr	r6, [pc, #308]	; (8000e5c <ssd1306_init+0x338>)
 8000d26:	4630      	mov	r0, r6
 8000d28:	f001 ff2e 	bl	8002b88 <HAL_I2C_GetState>
 8000d2c:	2820      	cmp	r0, #32
 8000d2e:	d1fa      	bne.n	8000d26 <ssd1306_init+0x202>
 8000d30:	2301      	movs	r3, #1
 8000d32:	26d3      	movs	r6, #211	; 0xd3
 8000d34:	e9cd 5300 	strd	r5, r3, [sp]
 8000d38:	2200      	movs	r2, #0
 8000d3a:	7821      	ldrb	r1, [r4, #0]
 8000d3c:	4847      	ldr	r0, [pc, #284]	; (8000e5c <ssd1306_init+0x338>)
 8000d3e:	f88d 600f 	strb.w	r6, [sp, #15]
 8000d42:	f000 ff81 	bl	8001c48 <HAL_I2C_Mem_Write_IT>
 8000d46:	4e45      	ldr	r6, [pc, #276]	; (8000e5c <ssd1306_init+0x338>)
 8000d48:	4630      	mov	r0, r6
 8000d4a:	f001 ff1d 	bl	8002b88 <HAL_I2C_GetState>
 8000d4e:	2820      	cmp	r0, #32
 8000d50:	d1fa      	bne.n	8000d48 <ssd1306_init+0x224>
 8000d52:	2301      	movs	r3, #1
 8000d54:	2200      	movs	r2, #0
 8000d56:	e9cd 5300 	strd	r5, r3, [sp]
 8000d5a:	4840      	ldr	r0, [pc, #256]	; (8000e5c <ssd1306_init+0x338>)
 8000d5c:	7821      	ldrb	r1, [r4, #0]
 8000d5e:	f88d 200f 	strb.w	r2, [sp, #15]
 8000d62:	f000 ff71 	bl	8001c48 <HAL_I2C_Mem_Write_IT>
 8000d66:	4e3d      	ldr	r6, [pc, #244]	; (8000e5c <ssd1306_init+0x338>)
 8000d68:	4630      	mov	r0, r6
 8000d6a:	f001 ff0d 	bl	8002b88 <HAL_I2C_GetState>
 8000d6e:	2820      	cmp	r0, #32
 8000d70:	d1fa      	bne.n	8000d68 <ssd1306_init+0x244>
 8000d72:	2301      	movs	r3, #1
 8000d74:	26d5      	movs	r6, #213	; 0xd5
 8000d76:	e9cd 5300 	strd	r5, r3, [sp]
 8000d7a:	2200      	movs	r2, #0
 8000d7c:	7821      	ldrb	r1, [r4, #0]
 8000d7e:	4837      	ldr	r0, [pc, #220]	; (8000e5c <ssd1306_init+0x338>)
 8000d80:	f88d 600f 	strb.w	r6, [sp, #15]
 8000d84:	f000 ff60 	bl	8001c48 <HAL_I2C_Mem_Write_IT>
 8000d88:	4e34      	ldr	r6, [pc, #208]	; (8000e5c <ssd1306_init+0x338>)
 8000d8a:	4630      	mov	r0, r6
 8000d8c:	f001 fefc 	bl	8002b88 <HAL_I2C_GetState>
 8000d90:	2820      	cmp	r0, #32
 8000d92:	d1fa      	bne.n	8000d8a <ssd1306_init+0x266>
 8000d94:	2301      	movs	r3, #1
 8000d96:	26f0      	movs	r6, #240	; 0xf0
 8000d98:	e9cd 5300 	strd	r5, r3, [sp]
 8000d9c:	2200      	movs	r2, #0
 8000d9e:	7821      	ldrb	r1, [r4, #0]
 8000da0:	482e      	ldr	r0, [pc, #184]	; (8000e5c <ssd1306_init+0x338>)
 8000da2:	f88d 600f 	strb.w	r6, [sp, #15]
 8000da6:	f000 ff4f 	bl	8001c48 <HAL_I2C_Mem_Write_IT>
 8000daa:	4e2c      	ldr	r6, [pc, #176]	; (8000e5c <ssd1306_init+0x338>)
 8000dac:	4630      	mov	r0, r6
 8000dae:	f001 feeb 	bl	8002b88 <HAL_I2C_GetState>
 8000db2:	2820      	cmp	r0, #32
 8000db4:	d1fa      	bne.n	8000dac <ssd1306_init+0x288>
 8000db6:	2301      	movs	r3, #1
 8000db8:	26d9      	movs	r6, #217	; 0xd9
 8000dba:	e9cd 5300 	strd	r5, r3, [sp]
 8000dbe:	2200      	movs	r2, #0
 8000dc0:	7821      	ldrb	r1, [r4, #0]
 8000dc2:	4826      	ldr	r0, [pc, #152]	; (8000e5c <ssd1306_init+0x338>)
 8000dc4:	f88d 600f 	strb.w	r6, [sp, #15]
 8000dc8:	f000 ff3e 	bl	8001c48 <HAL_I2C_Mem_Write_IT>
 8000dcc:	4e23      	ldr	r6, [pc, #140]	; (8000e5c <ssd1306_init+0x338>)
 8000dce:	4630      	mov	r0, r6
 8000dd0:	f001 feda 	bl	8002b88 <HAL_I2C_GetState>
 8000dd4:	2820      	cmp	r0, #32
 8000dd6:	d1fa      	bne.n	8000dce <ssd1306_init+0x2aa>
 8000dd8:	2301      	movs	r3, #1
 8000dda:	2622      	movs	r6, #34	; 0x22
 8000ddc:	e9cd 5300 	strd	r5, r3, [sp]
 8000de0:	2200      	movs	r2, #0
 8000de2:	7821      	ldrb	r1, [r4, #0]
 8000de4:	481d      	ldr	r0, [pc, #116]	; (8000e5c <ssd1306_init+0x338>)
 8000de6:	f88d 600f 	strb.w	r6, [sp, #15]
 8000dea:	f000 ff2d 	bl	8001c48 <HAL_I2C_Mem_Write_IT>
 8000dee:	4e1b      	ldr	r6, [pc, #108]	; (8000e5c <ssd1306_init+0x338>)
 8000df0:	4630      	mov	r0, r6
 8000df2:	f001 fec9 	bl	8002b88 <HAL_I2C_GetState>
 8000df6:	2820      	cmp	r0, #32
 8000df8:	d1fa      	bne.n	8000df0 <ssd1306_init+0x2cc>
 8000dfa:	2301      	movs	r3, #1
 8000dfc:	26da      	movs	r6, #218	; 0xda
 8000dfe:	e9cd 5300 	strd	r5, r3, [sp]
 8000e02:	2200      	movs	r2, #0
 8000e04:	7821      	ldrb	r1, [r4, #0]
 8000e06:	4815      	ldr	r0, [pc, #84]	; (8000e5c <ssd1306_init+0x338>)
 8000e08:	f88d 600f 	strb.w	r6, [sp, #15]
 8000e0c:	f000 ff1c 	bl	8001c48 <HAL_I2C_Mem_Write_IT>
 8000e10:	4e12      	ldr	r6, [pc, #72]	; (8000e5c <ssd1306_init+0x338>)
 8000e12:	4630      	mov	r0, r6
 8000e14:	f001 feb8 	bl	8002b88 <HAL_I2C_GetState>
 8000e18:	2820      	cmp	r0, #32
 8000e1a:	d1fa      	bne.n	8000e12 <ssd1306_init+0x2ee>
 8000e1c:	2301      	movs	r3, #1
 8000e1e:	2612      	movs	r6, #18
 8000e20:	e9cd 5300 	strd	r5, r3, [sp]
 8000e24:	2200      	movs	r2, #0
 8000e26:	7821      	ldrb	r1, [r4, #0]
 8000e28:	480c      	ldr	r0, [pc, #48]	; (8000e5c <ssd1306_init+0x338>)
 8000e2a:	f88d 600f 	strb.w	r6, [sp, #15]
 8000e2e:	f000 ff0b 	bl	8001c48 <HAL_I2C_Mem_Write_IT>
 8000e32:	4e0a      	ldr	r6, [pc, #40]	; (8000e5c <ssd1306_init+0x338>)
 8000e34:	4630      	mov	r0, r6
 8000e36:	f001 fea7 	bl	8002b88 <HAL_I2C_GetState>
 8000e3a:	2820      	cmp	r0, #32
 8000e3c:	d1fa      	bne.n	8000e34 <ssd1306_init+0x310>
 8000e3e:	2301      	movs	r3, #1
 8000e40:	26db      	movs	r6, #219	; 0xdb
 8000e42:	e9cd 5300 	strd	r5, r3, [sp]
 8000e46:	2200      	movs	r2, #0
 8000e48:	7821      	ldrb	r1, [r4, #0]
 8000e4a:	4804      	ldr	r0, [pc, #16]	; (8000e5c <ssd1306_init+0x338>)
 8000e4c:	f88d 600f 	strb.w	r6, [sp, #15]
 8000e50:	f000 fefa 	bl	8001c48 <HAL_I2C_Mem_Write_IT>
 8000e54:	4f01      	ldr	r7, [pc, #4]	; (8000e5c <ssd1306_init+0x338>)
 8000e56:	e003      	b.n	8000e60 <ssd1306_init+0x33c>
 8000e58:	20002148 	.word	0x20002148
 8000e5c:	20002588 	.word	0x20002588
 8000e60:	4638      	mov	r0, r7
 8000e62:	f001 fe91 	bl	8002b88 <HAL_I2C_GetState>
 8000e66:	2820      	cmp	r0, #32
 8000e68:	4606      	mov	r6, r0
 8000e6a:	d1f9      	bne.n	8000e60 <ssd1306_init+0x33c>
 8000e6c:	2301      	movs	r3, #1
 8000e6e:	e9cd 5300 	strd	r5, r3, [sp]
 8000e72:	2200      	movs	r2, #0
 8000e74:	7821      	ldrb	r1, [r4, #0]
 8000e76:	4879      	ldr	r0, [pc, #484]	; (800105c <ssd1306_init+0x538>)
 8000e78:	f88d 600f 	strb.w	r6, [sp, #15]
 8000e7c:	f000 fee4 	bl	8001c48 <HAL_I2C_Mem_Write_IT>
 8000e80:	4e76      	ldr	r6, [pc, #472]	; (800105c <ssd1306_init+0x538>)
 8000e82:	4630      	mov	r0, r6
 8000e84:	f001 fe80 	bl	8002b88 <HAL_I2C_GetState>
 8000e88:	2820      	cmp	r0, #32
 8000e8a:	d1fa      	bne.n	8000e82 <ssd1306_init+0x35e>
 8000e8c:	2301      	movs	r3, #1
 8000e8e:	268d      	movs	r6, #141	; 0x8d
 8000e90:	e9cd 5300 	strd	r5, r3, [sp]
 8000e94:	2200      	movs	r2, #0
 8000e96:	7821      	ldrb	r1, [r4, #0]
 8000e98:	4870      	ldr	r0, [pc, #448]	; (800105c <ssd1306_init+0x538>)
 8000e9a:	f88d 600f 	strb.w	r6, [sp, #15]
 8000e9e:	f000 fed3 	bl	8001c48 <HAL_I2C_Mem_Write_IT>
 8000ea2:	4e6e      	ldr	r6, [pc, #440]	; (800105c <ssd1306_init+0x538>)
 8000ea4:	4630      	mov	r0, r6
 8000ea6:	f001 fe6f 	bl	8002b88 <HAL_I2C_GetState>
 8000eaa:	2820      	cmp	r0, #32
 8000eac:	d1fa      	bne.n	8000ea4 <ssd1306_init+0x380>
 8000eae:	2301      	movs	r3, #1
 8000eb0:	2614      	movs	r6, #20
 8000eb2:	e9cd 5300 	strd	r5, r3, [sp]
 8000eb6:	2200      	movs	r2, #0
 8000eb8:	7821      	ldrb	r1, [r4, #0]
 8000eba:	4868      	ldr	r0, [pc, #416]	; (800105c <ssd1306_init+0x538>)
 8000ebc:	f88d 600f 	strb.w	r6, [sp, #15]
 8000ec0:	f000 fec2 	bl	8001c48 <HAL_I2C_Mem_Write_IT>
 8000ec4:	4e65      	ldr	r6, [pc, #404]	; (800105c <ssd1306_init+0x538>)
 8000ec6:	4630      	mov	r0, r6
 8000ec8:	f001 fe5e 	bl	8002b88 <HAL_I2C_GetState>
 8000ecc:	2820      	cmp	r0, #32
 8000ece:	d1fa      	bne.n	8000ec6 <ssd1306_init+0x3a2>
 8000ed0:	2301      	movs	r3, #1
 8000ed2:	26af      	movs	r6, #175	; 0xaf
 8000ed4:	e9cd 5300 	strd	r5, r3, [sp]
 8000ed8:	2200      	movs	r2, #0
 8000eda:	7821      	ldrb	r1, [r4, #0]
 8000edc:	485f      	ldr	r0, [pc, #380]	; (800105c <ssd1306_init+0x538>)
 8000ede:	f88d 600f 	strb.w	r6, [sp, #15]
 8000ee2:	f000 feb1 	bl	8001c48 <HAL_I2C_Mem_Write_IT>
 8000ee6:	4e5d      	ldr	r6, [pc, #372]	; (800105c <ssd1306_init+0x538>)
 8000ee8:	4630      	mov	r0, r6
 8000eea:	f001 fe4d 	bl	8002b88 <HAL_I2C_GetState>
 8000eee:	2820      	cmp	r0, #32
 8000ef0:	d1fa      	bne.n	8000ee8 <ssd1306_init+0x3c4>
 8000ef2:	2200      	movs	r2, #0
 8000ef4:	27b0      	movs	r7, #176	; 0xb0
 8000ef6:	f04f 0901 	mov.w	r9, #1
 8000efa:	4b59      	ldr	r3, [pc, #356]	; (8001060 <ssd1306_init+0x53c>)
 8000efc:	f8df 8164 	ldr.w	r8, [pc, #356]	; 8001064 <ssd1306_init+0x540>
 8000f00:	4e56      	ldr	r6, [pc, #344]	; (800105c <ssd1306_init+0x538>)
 8000f02:	601a      	str	r2, [r3, #0]
 8000f04:	e9cd 5900 	strd	r5, r9, [sp]
 8000f08:	2301      	movs	r3, #1
 8000f0a:	2200      	movs	r2, #0
 8000f0c:	4630      	mov	r0, r6
 8000f0e:	7821      	ldrb	r1, [r4, #0]
 8000f10:	f88d 700f 	strb.w	r7, [sp, #15]
 8000f14:	f000 fe98 	bl	8001c48 <HAL_I2C_Mem_Write_IT>
 8000f18:	4630      	mov	r0, r6
 8000f1a:	f001 fe35 	bl	8002b88 <HAL_I2C_GetState>
 8000f1e:	2820      	cmp	r0, #32
 8000f20:	d1fa      	bne.n	8000f18 <ssd1306_init+0x3f4>
 8000f22:	f04f 0c02 	mov.w	ip, #2
 8000f26:	e9cd 5900 	strd	r5, r9, [sp]
 8000f2a:	2301      	movs	r3, #1
 8000f2c:	2200      	movs	r2, #0
 8000f2e:	4630      	mov	r0, r6
 8000f30:	7821      	ldrb	r1, [r4, #0]
 8000f32:	f88d c00f 	strb.w	ip, [sp, #15]
 8000f36:	f000 fe87 	bl	8001c48 <HAL_I2C_Mem_Write_IT>
 8000f3a:	4630      	mov	r0, r6
 8000f3c:	f001 fe24 	bl	8002b88 <HAL_I2C_GetState>
 8000f40:	2820      	cmp	r0, #32
 8000f42:	d1fa      	bne.n	8000f3a <ssd1306_init+0x416>
 8000f44:	f04f 0c10 	mov.w	ip, #16
 8000f48:	e9cd 5900 	strd	r5, r9, [sp]
 8000f4c:	2301      	movs	r3, #1
 8000f4e:	2200      	movs	r2, #0
 8000f50:	4630      	mov	r0, r6
 8000f52:	7821      	ldrb	r1, [r4, #0]
 8000f54:	f88d c00f 	strb.w	ip, [sp, #15]
 8000f58:	f000 fe76 	bl	8001c48 <HAL_I2C_Mem_Write_IT>
 8000f5c:	4630      	mov	r0, r6
 8000f5e:	f001 fe13 	bl	8002b88 <HAL_I2C_GetState>
 8000f62:	2820      	cmp	r0, #32
 8000f64:	d1fa      	bne.n	8000f5c <ssd1306_init+0x438>
 8000f66:	2380      	movs	r3, #128	; 0x80
 8000f68:	e9cd 8300 	strd	r8, r3, [sp]
 8000f6c:	2240      	movs	r2, #64	; 0x40
 8000f6e:	2301      	movs	r3, #1
 8000f70:	4630      	mov	r0, r6
 8000f72:	7821      	ldrb	r1, [r4, #0]
 8000f74:	f000 fe68 	bl	8001c48 <HAL_I2C_Mem_Write_IT>
 8000f78:	4630      	mov	r0, r6
 8000f7a:	f001 fe05 	bl	8002b88 <HAL_I2C_GetState>
 8000f7e:	2820      	cmp	r0, #32
 8000f80:	d1fa      	bne.n	8000f78 <ssd1306_init+0x454>
 8000f82:	3701      	adds	r7, #1
 8000f84:	b2ff      	uxtb	r7, r7
 8000f86:	2fb8      	cmp	r7, #184	; 0xb8
 8000f88:	f108 0880 	add.w	r8, r8, #128	; 0x80
 8000f8c:	d1ba      	bne.n	8000f04 <ssd1306_init+0x3e0>
 8000f8e:	2301      	movs	r3, #1
 8000f90:	2621      	movs	r6, #33	; 0x21
 8000f92:	e9cd 5300 	strd	r5, r3, [sp]
 8000f96:	2200      	movs	r2, #0
 8000f98:	7821      	ldrb	r1, [r4, #0]
 8000f9a:	4830      	ldr	r0, [pc, #192]	; (800105c <ssd1306_init+0x538>)
 8000f9c:	f88d 600f 	strb.w	r6, [sp, #15]
 8000fa0:	f000 fe52 	bl	8001c48 <HAL_I2C_Mem_Write_IT>
 8000fa4:	4e2d      	ldr	r6, [pc, #180]	; (800105c <ssd1306_init+0x538>)
 8000fa6:	4630      	mov	r0, r6
 8000fa8:	f001 fdee 	bl	8002b88 <HAL_I2C_GetState>
 8000fac:	2820      	cmp	r0, #32
 8000fae:	d1fa      	bne.n	8000fa6 <ssd1306_init+0x482>
 8000fb0:	2301      	movs	r3, #1
 8000fb2:	2200      	movs	r2, #0
 8000fb4:	e9cd 5300 	strd	r5, r3, [sp]
 8000fb8:	4828      	ldr	r0, [pc, #160]	; (800105c <ssd1306_init+0x538>)
 8000fba:	7821      	ldrb	r1, [r4, #0]
 8000fbc:	f88d 200f 	strb.w	r2, [sp, #15]
 8000fc0:	f000 fe42 	bl	8001c48 <HAL_I2C_Mem_Write_IT>
 8000fc4:	4e25      	ldr	r6, [pc, #148]	; (800105c <ssd1306_init+0x538>)
 8000fc6:	4630      	mov	r0, r6
 8000fc8:	f001 fdde 	bl	8002b88 <HAL_I2C_GetState>
 8000fcc:	2820      	cmp	r0, #32
 8000fce:	d1fa      	bne.n	8000fc6 <ssd1306_init+0x4a2>
 8000fd0:	2301      	movs	r3, #1
 8000fd2:	267f      	movs	r6, #127	; 0x7f
 8000fd4:	e9cd 5300 	strd	r5, r3, [sp]
 8000fd8:	2200      	movs	r2, #0
 8000fda:	7821      	ldrb	r1, [r4, #0]
 8000fdc:	481f      	ldr	r0, [pc, #124]	; (800105c <ssd1306_init+0x538>)
 8000fde:	f88d 600f 	strb.w	r6, [sp, #15]
 8000fe2:	f000 fe31 	bl	8001c48 <HAL_I2C_Mem_Write_IT>
 8000fe6:	4e1d      	ldr	r6, [pc, #116]	; (800105c <ssd1306_init+0x538>)
 8000fe8:	4630      	mov	r0, r6
 8000fea:	f001 fdcd 	bl	8002b88 <HAL_I2C_GetState>
 8000fee:	2820      	cmp	r0, #32
 8000ff0:	d1fa      	bne.n	8000fe8 <ssd1306_init+0x4c4>
 8000ff2:	2301      	movs	r3, #1
 8000ff4:	2622      	movs	r6, #34	; 0x22
 8000ff6:	e9cd 5300 	strd	r5, r3, [sp]
 8000ffa:	2200      	movs	r2, #0
 8000ffc:	7821      	ldrb	r1, [r4, #0]
 8000ffe:	4817      	ldr	r0, [pc, #92]	; (800105c <ssd1306_init+0x538>)
 8001000:	f88d 600f 	strb.w	r6, [sp, #15]
 8001004:	f000 fe20 	bl	8001c48 <HAL_I2C_Mem_Write_IT>
 8001008:	4e14      	ldr	r6, [pc, #80]	; (800105c <ssd1306_init+0x538>)
 800100a:	4630      	mov	r0, r6
 800100c:	f001 fdbc 	bl	8002b88 <HAL_I2C_GetState>
 8001010:	2820      	cmp	r0, #32
 8001012:	d1fa      	bne.n	800100a <ssd1306_init+0x4e6>
 8001014:	2301      	movs	r3, #1
 8001016:	2200      	movs	r2, #0
 8001018:	e9cd 5300 	strd	r5, r3, [sp]
 800101c:	480f      	ldr	r0, [pc, #60]	; (800105c <ssd1306_init+0x538>)
 800101e:	7821      	ldrb	r1, [r4, #0]
 8001020:	f88d 200f 	strb.w	r2, [sp, #15]
 8001024:	f000 fe10 	bl	8001c48 <HAL_I2C_Mem_Write_IT>
 8001028:	4e0c      	ldr	r6, [pc, #48]	; (800105c <ssd1306_init+0x538>)
 800102a:	4630      	mov	r0, r6
 800102c:	f001 fdac 	bl	8002b88 <HAL_I2C_GetState>
 8001030:	2820      	cmp	r0, #32
 8001032:	d1fa      	bne.n	800102a <ssd1306_init+0x506>
 8001034:	2301      	movs	r3, #1
 8001036:	2607      	movs	r6, #7
 8001038:	9500      	str	r5, [sp, #0]
 800103a:	7821      	ldrb	r1, [r4, #0]
 800103c:	2200      	movs	r2, #0
 800103e:	4807      	ldr	r0, [pc, #28]	; (800105c <ssd1306_init+0x538>)
 8001040:	9301      	str	r3, [sp, #4]
 8001042:	f88d 600f 	strb.w	r6, [sp, #15]
 8001046:	f000 fdff 	bl	8001c48 <HAL_I2C_Mem_Write_IT>
 800104a:	4c04      	ldr	r4, [pc, #16]	; (800105c <ssd1306_init+0x538>)
 800104c:	4620      	mov	r0, r4
 800104e:	f001 fd9b 	bl	8002b88 <HAL_I2C_GetState>
 8001052:	2820      	cmp	r0, #32
 8001054:	d1fa      	bne.n	800104c <ssd1306_init+0x528>
 8001056:	b005      	add	sp, #20
 8001058:	e8bd 83f0 	ldmia.w	sp!, {r4, r5, r6, r7, r8, r9, pc}
 800105c:	20002588 	.word	0x20002588
 8001060:	20002584 	.word	0x20002584
 8001064:	20002158 	.word	0x20002158

08001068 <ssd1306_clear>:
 8001068:	f44f 6280 	mov.w	r2, #1024	; 0x400
 800106c:	2100      	movs	r1, #0
 800106e:	4801      	ldr	r0, [pc, #4]	; (8001074 <ssd1306_clear+0xc>)
 8001070:	f002 bd82 	b.w	8003b78 <memset>
 8001074:	20002158 	.word	0x20002158

08001078 <ssd1306_refresh>:
 8001078:	e92d 43f0 	stmdb	sp!, {r4, r5, r6, r7, r8, r9, lr}
 800107c:	25b0      	movs	r5, #176	; 0xb0
 800107e:	f04f 0901 	mov.w	r9, #1
 8001082:	b085      	sub	sp, #20
 8001084:	f8df 80a0 	ldr.w	r8, [pc, #160]	; 8001128 <ssd1306_refresh+0xb0>
 8001088:	4e25      	ldr	r6, [pc, #148]	; (8001120 <ssd1306_refresh+0xa8>)
 800108a:	4c26      	ldr	r4, [pc, #152]	; (8001124 <ssd1306_refresh+0xac>)
 800108c:	f10d 070f 	add.w	r7, sp, #15
 8001090:	2301      	movs	r3, #1
 8001092:	2200      	movs	r2, #0
 8001094:	4620      	mov	r0, r4
 8001096:	e9cd 7900 	strd	r7, r9, [sp]
 800109a:	7831      	ldrb	r1, [r6, #0]
 800109c:	f88d 500f 	strb.w	r5, [sp, #15]
 80010a0:	f000 fdd2 	bl	8001c48 <HAL_I2C_Mem_Write_IT>
 80010a4:	4620      	mov	r0, r4
 80010a6:	f001 fd6f 	bl	8002b88 <HAL_I2C_GetState>
 80010aa:	2820      	cmp	r0, #32
 80010ac:	d1fa      	bne.n	80010a4 <ssd1306_refresh+0x2c>
 80010ae:	f04f 0c02 	mov.w	ip, #2
 80010b2:	2301      	movs	r3, #1
 80010b4:	2200      	movs	r2, #0
 80010b6:	4620      	mov	r0, r4
 80010b8:	e9cd 7900 	strd	r7, r9, [sp]
 80010bc:	7831      	ldrb	r1, [r6, #0]
 80010be:	f88d c00f 	strb.w	ip, [sp, #15]
 80010c2:	f000 fdc1 	bl	8001c48 <HAL_I2C_Mem_Write_IT>
 80010c6:	4620      	mov	r0, r4
 80010c8:	f001 fd5e 	bl	8002b88 <HAL_I2C_GetState>
 80010cc:	2820      	cmp	r0, #32
 80010ce:	d1fa      	bne.n	80010c6 <ssd1306_refresh+0x4e>
 80010d0:	f04f 0c10 	mov.w	ip, #16
 80010d4:	2301      	movs	r3, #1
 80010d6:	2200      	movs	r2, #0
 80010d8:	4620      	mov	r0, r4
 80010da:	e9cd 7900 	strd	r7, r9, [sp]
 80010de:	7831      	ldrb	r1, [r6, #0]
 80010e0:	f88d c00f 	strb.w	ip, [sp, #15]
 80010e4:	f000 fdb0 	bl	8001c48 <HAL_I2C_Mem_Write_IT>
 80010e8:	4620      	mov	r0, r4
 80010ea:	f001 fd4d 	bl	8002b88 <HAL_I2C_GetState>
 80010ee:	2820      	cmp	r0, #32
 80010f0:	d1fa      	bne.n	80010e8 <ssd1306_refresh+0x70>
 80010f2:	2380      	movs	r3, #128	; 0x80
 80010f4:	2240      	movs	r2, #64	; 0x40
 80010f6:	e9cd 8300 	strd	r8, r3, [sp]
 80010fa:	4620      	mov	r0, r4
 80010fc:	2301      	movs	r3, #1
 80010fe:	7831      	ldrb	r1, [r6, #0]
 8001100:	f000 fda2 	bl	8001c48 <HAL_I2C_Mem_Write_IT>
 8001104:	4620      	mov	r0, r4
 8001106:	f001 fd3f 	bl	8002b88 <HAL_I2C_GetState>
 800110a:	2820      	cmp	r0, #32
 800110c:	d1fa      	bne.n	8001104 <ssd1306_refresh+0x8c>
 800110e:	3501      	adds	r5, #1
 8001110:	b2ed      	uxtb	r5, r5
 8001112:	2db8      	cmp	r5, #184	; 0xb8
 8001114:	f108 0880 	add.w	r8, r8, #128	; 0x80
 8001118:	d1ba      	bne.n	8001090 <ssd1306_refresh+0x18>
 800111a:	b005      	add	sp, #20
 800111c:	e8bd 83f0 	ldmia.w	sp!, {r4, r5, r6, r7, r8, r9, pc}
 8001120:	20002148 	.word	0x20002148
 8001124:	20002588 	.word	0x20002588
 8001128:	20002158 	.word	0x20002158

0800112c <ssd1306_drawhmm>:
 800112c:	e92d 4ff0 	stmdb	sp!, {r4, r5, r6, r7, r8, r9, sl, fp, lr}
 8001130:	7e8b      	ldrb	r3, [r1, #26]
 8001132:	b089      	sub	sp, #36	; 0x24
 8001134:	f003 02ff 	and.w	r2, r3, #255	; 0xff
 8001138:	9102      	str	r1, [sp, #8]
 800113a:	9201      	str	r2, [sp, #4]
 800113c:	2b00      	cmp	r3, #0
 800113e:	d05c      	beq.n	80011fa <ssd1306_drawhmm+0xce>
 8001140:	4b64      	ldr	r3, [pc, #400]	; (80012d4 <ssd1306_drawhmm+0x1a8>)
 8001142:	4a65      	ldr	r2, [pc, #404]	; (80012d8 <ssd1306_drawhmm+0x1ac>)
 8001144:	681b      	ldr	r3, [r3, #0]
 8001146:	f852 2020 	ldr.w	r2, [r2, r0, lsl #2]
 800114a:	781c      	ldrb	r4, [r3, #0]
 800114c:	894b      	ldrh	r3, [r1, #10]
 800114e:	9203      	str	r2, [sp, #12]
 8001150:	4962      	ldr	r1, [pc, #392]	; (80012dc <ssd1306_drawhmm+0x1b0>)
 8001152:	8852      	ldrh	r2, [r2, #2]
 8001154:	f1c4 0480 	rsb	r4, r4, #128	; 0x80
 8001158:	fa0f f983 	sxth.w	r9, r3
 800115c:	b2a4      	uxth	r4, r4
 800115e:	f1b9 0f00 	cmp.w	r9, #0
 8001162:	9205      	str	r2, [sp, #20]
 8001164:	800c      	strh	r4, [r1, #0]
 8001166:	804a      	strh	r2, [r1, #2]
 8001168:	db4b      	blt.n	8001202 <ssd1306_drawhmm+0xd6>
 800116a:	232b      	movs	r3, #43	; 0x2b
 800116c:	9304      	str	r3, [sp, #16]
 800116e:	f04f 0a00 	mov.w	sl, #0
 8001172:	46d0      	mov	r8, sl
 8001174:	f8df b16c 	ldr.w	fp, [pc, #364]	; 80012e4 <ssd1306_drawhmm+0x1b8>
 8001178:	4a59      	ldr	r2, [pc, #356]	; (80012e0 <ssd1306_drawhmm+0x1b4>)
 800117a:	ea4f 73e9 	mov.w	r3, r9, asr #31
 800117e:	fb82 1209 	smull	r1, r2, r2, r9
 8001182:	ebc3 03a2 	rsb	r3, r3, r2, asr #2
 8001186:	eb03 0083 	add.w	r0, r3, r3, lsl #2
 800118a:	eba9 0040 	sub.w	r0, r9, r0, lsl #1
 800118e:	3030      	adds	r0, #48	; 0x30
 8001190:	b2c0      	uxtb	r0, r0
 8001192:	fa0f f983 	sxth.w	r9, r3
 8001196:	f7ff fbfb 	bl	8000990 <ssd1306_drawchar.constprop.2>
 800119a:	4b4e      	ldr	r3, [pc, #312]	; (80012d4 <ssd1306_drawhmm+0x1a8>)
 800119c:	681f      	ldr	r7, [r3, #0]
 800119e:	f108 0301 	add.w	r3, r8, #1
 80011a2:	783a      	ldrb	r2, [r7, #0]
 80011a4:	fa5f f883 	uxtb.w	r8, r3
 80011a8:	1aa4      	subs	r4, r4, r2
 80011aa:	4b4c      	ldr	r3, [pc, #304]	; (80012dc <ssd1306_drawhmm+0x1b0>)
 80011ac:	b2a4      	uxth	r4, r4
 80011ae:	f1b8 0f02 	cmp.w	r8, #2
 80011b2:	801c      	strh	r4, [r3, #0]
 80011b4:	b291      	uxth	r1, r2
 80011b6:	d02a      	beq.n	800120e <ssd1306_drawhmm+0xe2>
 80011b8:	f1b8 0f05 	cmp.w	r8, #5
 80011bc:	d1dc      	bne.n	8001178 <ssd1306_drawhmm+0x4c>
 80011be:	4d45      	ldr	r5, [pc, #276]	; (80012d4 <ssd1306_drawhmm+0x1a8>)
 80011c0:	9804      	ldr	r0, [sp, #16]
 80011c2:	f7ff fbe5 	bl	8000990 <ssd1306_drawchar.constprop.2>
 80011c6:	682b      	ldr	r3, [r5, #0]
 80011c8:	4e44      	ldr	r6, [pc, #272]	; (80012dc <ssd1306_drawhmm+0x1b0>)
 80011ca:	781b      	ldrb	r3, [r3, #0]
 80011cc:	1ae4      	subs	r4, r4, r3
 80011ce:	b2a4      	uxth	r4, r4
 80011d0:	8034      	strh	r4, [r6, #0]
 80011d2:	f7ff fc47 	bl	8000a64 <ssd1306_drawchar.constprop.1>
 80011d6:	682b      	ldr	r3, [r5, #0]
 80011d8:	781b      	ldrb	r3, [r3, #0]
 80011da:	1ae4      	subs	r4, r4, r3
 80011dc:	b2a4      	uxth	r4, r4
 80011de:	8034      	strh	r4, [r6, #0]
 80011e0:	f7ff fc40 	bl	8000a64 <ssd1306_drawchar.constprop.1>
 80011e4:	682b      	ldr	r3, [r5, #0]
 80011e6:	9a03      	ldr	r2, [sp, #12]
 80011e8:	781b      	ldrb	r3, [r3, #0]
 80011ea:	7810      	ldrb	r0, [r2, #0]
 80011ec:	1ae4      	subs	r4, r4, r3
 80011ee:	8034      	strh	r4, [r6, #0]
 80011f0:	f7ff fbce 	bl	8000990 <ssd1306_drawchar.constprop.2>
 80011f4:	2300      	movs	r3, #0
 80011f6:	9a02      	ldr	r2, [sp, #8]
 80011f8:	7693      	strb	r3, [r2, #26]
 80011fa:	9801      	ldr	r0, [sp, #4]
 80011fc:	b009      	add	sp, #36	; 0x24
 80011fe:	e8bd 8ff0 	ldmia.w	sp!, {r4, r5, r6, r7, r8, r9, sl, fp, pc}
 8001202:	425b      	negs	r3, r3
 8001204:	fa0f f983 	sxth.w	r9, r3
 8001208:	232d      	movs	r3, #45	; 0x2d
 800120a:	9304      	str	r3, [sp, #16]
 800120c:	e7af      	b.n	800116e <ssd1306_drawhmm+0x42>
 800120e:	787b      	ldrb	r3, [r7, #1]
 8001210:	2b00      	cmp	r3, #0
 8001212:	d050      	beq.n	80012b6 <ssd1306_drawhmm+0x18a>
 8001214:	f04f 0c00 	mov.w	ip, #0
 8001218:	e9cd 9806 	strd	r9, r8, [sp, #24]
 800121c:	46e0      	mov	r8, ip
 800121e:	9905      	ldr	r1, [sp, #20]
 8001220:	2a00      	cmp	r2, #0
 8001222:	d03f      	beq.n	80012a4 <ssd1306_drawhmm+0x178>
 8001224:	2001      	movs	r0, #1
 8001226:	f001 0507 	and.w	r5, r1, #7
 800122a:	fa00 f505 	lsl.w	r5, r0, r5
 800122e:	b26d      	sxtb	r5, r5
 8001230:	08c8      	lsrs	r0, r1, #3
 8001232:	293f      	cmp	r1, #63	; 0x3f
 8001234:	ea6f 0905 	mvn.w	r9, r5
 8001238:	ea4f 10c0 	mov.w	r0, r0, lsl #7
 800123c:	d831      	bhi.n	80012a2 <ssd1306_drawhmm+0x176>
 800123e:	4623      	mov	r3, r4
 8001240:	f04f 0e00 	mov.w	lr, #0
 8001244:	9100      	str	r1, [sp, #0]
 8001246:	e012      	b.n	800126e <ssd1306_drawhmm+0x142>
 8001248:	2b7f      	cmp	r3, #127	; 0x7f
 800124a:	eb03 0600 	add.w	r6, r3, r0
 800124e:	d806      	bhi.n	800125e <ssd1306_drawhmm+0x132>
 8001250:	f81b 2006 	ldrb.w	r2, [fp, r6]
 8001254:	ea09 0202 	and.w	r2, r9, r2
 8001258:	f80b 2006 	strb.w	r2, [fp, r6]
 800125c:	783a      	ldrb	r2, [r7, #0]
 800125e:	f10e 0e01 	add.w	lr, lr, #1
 8001262:	3301      	adds	r3, #1
 8001264:	4572      	cmp	r2, lr
 8001266:	b29b      	uxth	r3, r3
 8001268:	f10c 0c01 	add.w	ip, ip, #1
 800126c:	d928      	bls.n	80012c0 <ssd1306_drawhmm+0x194>
 800126e:	78be      	ldrb	r6, [r7, #2]
 8001270:	6879      	ldr	r1, [r7, #4]
 8001272:	ebc6 06c6 	rsb	r6, r6, r6, lsl #3
 8001276:	eb01 0646 	add.w	r6, r1, r6, lsl #1
 800127a:	ea4f 0adc 	mov.w	sl, ip, lsr #3
 800127e:	f816 600a 	ldrb.w	r6, [r6, sl]
 8001282:	f00c 0a07 	and.w	sl, ip, #7
 8001286:	fa46 f60a 	asr.w	r6, r6, sl
 800128a:	07f1      	lsls	r1, r6, #31
 800128c:	d5dc      	bpl.n	8001248 <ssd1306_drawhmm+0x11c>
 800128e:	2b7f      	cmp	r3, #127	; 0x7f
 8001290:	d8e5      	bhi.n	800125e <ssd1306_drawhmm+0x132>
 8001292:	181e      	adds	r6, r3, r0
 8001294:	f81b 2006 	ldrb.w	r2, [fp, r6]
 8001298:	432a      	orrs	r2, r5
 800129a:	f80b 2006 	strb.w	r2, [fp, r6]
 800129e:	783a      	ldrb	r2, [r7, #0]
 80012a0:	e7dd      	b.n	800125e <ssd1306_drawhmm+0x132>
 80012a2:	4494      	add	ip, r2
 80012a4:	f108 0801 	add.w	r8, r8, #1
 80012a8:	3101      	adds	r1, #1
 80012aa:	4598      	cmp	r8, r3
 80012ac:	b289      	uxth	r1, r1
 80012ae:	d3b7      	bcc.n	8001220 <ssd1306_drawhmm+0xf4>
 80012b0:	e9dd 9806 	ldrd	r9, r8, [sp, #24]
 80012b4:	b291      	uxth	r1, r2
 80012b6:	4b09      	ldr	r3, [pc, #36]	; (80012dc <ssd1306_drawhmm+0x1b0>)
 80012b8:	1a64      	subs	r4, r4, r1
 80012ba:	b2a4      	uxth	r4, r4
 80012bc:	801c      	strh	r4, [r3, #0]
 80012be:	e75b      	b.n	8001178 <ssd1306_drawhmm+0x4c>
 80012c0:	9900      	ldr	r1, [sp, #0]
 80012c2:	787b      	ldrb	r3, [r7, #1]
 80012c4:	f108 0801 	add.w	r8, r8, #1
 80012c8:	3101      	adds	r1, #1
 80012ca:	4598      	cmp	r8, r3
 80012cc:	b289      	uxth	r1, r1
 80012ce:	d3a7      	bcc.n	8001220 <ssd1306_drawhmm+0xf4>
 80012d0:	e7ee      	b.n	80012b0 <ssd1306_drawhmm+0x184>
 80012d2:	bf00      	nop
 80012d4:	200000dc 	.word	0x200000dc
 80012d8:	08003bb8 	.word	0x08003bb8
 80012dc:	20002584 	.word	0x20002584
 80012e0:	66666667 	.word	0x66666667
 80012e4:	20002158 	.word	0x20002158

080012e8 <HAL_InitTick>:
 80012e8:	b538      	push	{r3, r4, r5, lr}
 80012ea:	f44f 737a 	mov.w	r3, #1000	; 0x3e8
 80012ee:	4a0d      	ldr	r2, [pc, #52]	; (8001324 <HAL_InitTick+0x3c>)
 80012f0:	4605      	mov	r5, r0
 80012f2:	7811      	ldrb	r1, [r2, #0]
 80012f4:	4a0c      	ldr	r2, [pc, #48]	; (8001328 <HAL_InitTick+0x40>)
 80012f6:	fbb3 f3f1 	udiv	r3, r3, r1
 80012fa:	6812      	ldr	r2, [r2, #0]
 80012fc:	fbb2 f0f3 	udiv	r0, r2, r3
 8001300:	f000 f8e0 	bl	80014c4 <HAL_SYSTICK_Config>
 8001304:	b908      	cbnz	r0, 800130a <HAL_InitTick+0x22>
 8001306:	2d0f      	cmp	r5, #15
 8001308:	d901      	bls.n	800130e <HAL_InitTick+0x26>
 800130a:	2001      	movs	r0, #1
 800130c:	bd38      	pop	{r3, r4, r5, pc}
 800130e:	4604      	mov	r4, r0
 8001310:	4602      	mov	r2, r0
 8001312:	4629      	mov	r1, r5
 8001314:	f04f 30ff 	mov.w	r0, #4294967295	; 0xffffffff
 8001318:	f000 f85e 	bl	80013d8 <HAL_NVIC_SetPriority>
 800131c:	4b03      	ldr	r3, [pc, #12]	; (800132c <HAL_InitTick+0x44>)
 800131e:	4620      	mov	r0, r4
 8001320:	601d      	str	r5, [r3, #0]
 8001322:	bd38      	pop	{r3, r4, r5, pc}
 8001324:	20002558 	.word	0x20002558
 8001328:	20000000 	.word	0x20000000
 800132c:	2000255c 	.word	0x2000255c

08001330 <HAL_Init>:
 8001330:	4a07      	ldr	r2, [pc, #28]	; (8001350 <HAL_Init+0x20>)
 8001332:	b508      	push	{r3, lr}
 8001334:	6813      	ldr	r3, [r2, #0]
 8001336:	2003      	movs	r0, #3
 8001338:	f043 0310 	orr.w	r3, r3, #16
 800133c:	6013      	str	r3, [r2, #0]
 800133e:	f000 f82d 	bl	800139c <HAL_NVIC_SetPriorityGrouping>
 8001342:	2000      	movs	r0, #0
 8001344:	f7ff ffd0 	bl	80012e8 <HAL_InitTick>
 8001348:	f7ff f906 	bl	8000558 <HAL_MspInit>
 800134c:	2000      	movs	r0, #0
 800134e:	bd08      	pop	{r3, pc}
 8001350:	40022000 	.word	0x40022000

08001354 <HAL_IncTick>:
 8001354:	4a03      	ldr	r2, [pc, #12]	; (8001364 <HAL_IncTick+0x10>)
 8001356:	4b04      	ldr	r3, [pc, #16]	; (8001368 <HAL_IncTick+0x14>)
 8001358:	6811      	ldr	r1, [r2, #0]
 800135a:	781b      	ldrb	r3, [r3, #0]
 800135c:	440b      	add	r3, r1
 800135e:	6013      	str	r3, [r2, #0]
 8001360:	4770      	bx	lr
 8001362:	bf00      	nop
 8001364:	20002624 	.word	0x20002624
 8001368:	20002558 	.word	0x20002558

0800136c <HAL_GetTick>:
 800136c:	4b01      	ldr	r3, [pc, #4]	; (8001374 <HAL_GetTick+0x8>)
 800136e:	6818      	ldr	r0, [r3, #0]
 8001370:	4770      	bx	lr
 8001372:	bf00      	nop
 8001374:	20002624 	.word	0x20002624

08001378 <HAL_Delay>:
 8001378:	b538      	push	{r3, r4, r5, lr}
 800137a:	4604      	mov	r4, r0
 800137c:	f7ff fff6 	bl	800136c <HAL_GetTick>
 8001380:	1c63      	adds	r3, r4, #1
 8001382:	4605      	mov	r5, r0
 8001384:	d002      	beq.n	800138c <HAL_Delay+0x14>
 8001386:	4b04      	ldr	r3, [pc, #16]	; (8001398 <HAL_Delay+0x20>)
 8001388:	781b      	ldrb	r3, [r3, #0]
 800138a:	441c      	add	r4, r3
 800138c:	f7ff ffee 	bl	800136c <HAL_GetTick>
 8001390:	1b40      	subs	r0, r0, r5
 8001392:	42a0      	cmp	r0, r4
 8001394:	d3fa      	bcc.n	800138c <HAL_Delay+0x14>
 8001396:	bd38      	pop	{r3, r4, r5, pc}
 8001398:	20002558 	.word	0x20002558

0800139c <HAL_NVIC_SetPriorityGrouping>:
 800139c:	1ec3      	subs	r3, r0, #3
 800139e:	2b04      	cmp	r3, #4
 80013a0:	b510      	push	{r4, lr}
 80013a2:	4604      	mov	r4, r0
 80013a4:	d80e      	bhi.n	80013c4 <HAL_NVIC_SetPriorityGrouping+0x28>
 80013a6:	f64f 01ff 	movw	r1, #63743	; 0xf8ff
 80013aa:	4a09      	ldr	r2, [pc, #36]	; (80013d0 <HAL_NVIC_SetPriorityGrouping+0x34>)
 80013ac:	0223      	lsls	r3, r4, #8
 80013ae:	68d4      	ldr	r4, [r2, #12]
 80013b0:	f403 63e0 	and.w	r3, r3, #1792	; 0x700
 80013b4:	400c      	ands	r4, r1
 80013b6:	4323      	orrs	r3, r4
 80013b8:	f043 63bf 	orr.w	r3, r3, #100139008	; 0x5f80000
 80013bc:	f443 3300 	orr.w	r3, r3, #131072	; 0x20000
 80013c0:	60d3      	str	r3, [r2, #12]
 80013c2:	bd10      	pop	{r4, pc}
 80013c4:	2192      	movs	r1, #146	; 0x92
 80013c6:	4803      	ldr	r0, [pc, #12]	; (80013d4 <HAL_NVIC_SetPriorityGrouping+0x38>)
 80013c8:	f7ff f8c4 	bl	8000554 <assert_failed>
 80013cc:	e7eb      	b.n	80013a6 <HAL_NVIC_SetPriorityGrouping+0xa>
 80013ce:	bf00      	nop
 80013d0:	e000ed00 	.word	0xe000ed00
 80013d4:	08003bc4 	.word	0x08003bc4

080013d8 <HAL_NVIC_SetPriority>:
 80013d8:	2a0f      	cmp	r2, #15
 80013da:	b570      	push	{r4, r5, r6, lr}
 80013dc:	4616      	mov	r6, r2
 80013de:	4605      	mov	r5, r0
 80013e0:	460c      	mov	r4, r1
 80013e2:	d837      	bhi.n	8001454 <HAL_NVIC_SetPriority+0x7c>
 80013e4:	2c0f      	cmp	r4, #15
 80013e6:	d830      	bhi.n	800144a <HAL_NVIC_SetPriority+0x72>
 80013e8:	4b1d      	ldr	r3, [pc, #116]	; (8001460 <HAL_NVIC_SetPriority+0x88>)
 80013ea:	68db      	ldr	r3, [r3, #12]
 80013ec:	f3c3 2302 	ubfx	r3, r3, #8, #3
 80013f0:	f1c3 0007 	rsb	r0, r3, #7
 80013f4:	2804      	cmp	r0, #4
 80013f6:	f103 0204 	add.w	r2, r3, #4
 80013fa:	bf28      	it	cs
 80013fc:	2004      	movcs	r0, #4
 80013fe:	2a06      	cmp	r2, #6
 8001400:	d918      	bls.n	8001434 <HAL_NVIC_SetPriority+0x5c>
 8001402:	f04f 32ff 	mov.w	r2, #4294967295	; 0xffffffff
 8001406:	3b03      	subs	r3, #3
 8001408:	409a      	lsls	r2, r3
 800140a:	ea26 0602 	bic.w	r6, r6, r2
 800140e:	f04f 31ff 	mov.w	r1, #4294967295	; 0xffffffff
 8001412:	4081      	lsls	r1, r0
 8001414:	ea24 0401 	bic.w	r4, r4, r1
 8001418:	409c      	lsls	r4, r3
 800141a:	2d00      	cmp	r5, #0
 800141c:	ea44 0406 	orr.w	r4, r4, r6
 8001420:	db0b      	blt.n	800143a <HAL_NVIC_SetPriority+0x62>
 8001422:	0124      	lsls	r4, r4, #4
 8001424:	f105 4560 	add.w	r5, r5, #3758096384	; 0xe0000000
 8001428:	b2e4      	uxtb	r4, r4
 800142a:	f505 4561 	add.w	r5, r5, #57600	; 0xe100
 800142e:	f885 4300 	strb.w	r4, [r5, #768]	; 0x300
 8001432:	bd70      	pop	{r4, r5, r6, pc}
 8001434:	2600      	movs	r6, #0
 8001436:	4633      	mov	r3, r6
 8001438:	e7e9      	b.n	800140e <HAL_NVIC_SetPriority+0x36>
 800143a:	4b0a      	ldr	r3, [pc, #40]	; (8001464 <HAL_NVIC_SetPriority+0x8c>)
 800143c:	f005 050f 	and.w	r5, r5, #15
 8001440:	0124      	lsls	r4, r4, #4
 8001442:	b2e4      	uxtb	r4, r4
 8001444:	442b      	add	r3, r5
 8001446:	761c      	strb	r4, [r3, #24]
 8001448:	bd70      	pop	{r4, r5, r6, pc}
 800144a:	21ab      	movs	r1, #171	; 0xab
 800144c:	4806      	ldr	r0, [pc, #24]	; (8001468 <HAL_NVIC_SetPriority+0x90>)
 800144e:	f7ff f881 	bl	8000554 <assert_failed>
 8001452:	e7c9      	b.n	80013e8 <HAL_NVIC_SetPriority+0x10>
 8001454:	21aa      	movs	r1, #170	; 0xaa
 8001456:	4804      	ldr	r0, [pc, #16]	; (8001468 <HAL_NVIC_SetPriority+0x90>)
 8001458:	f7ff f87c 	bl	8000554 <assert_failed>
 800145c:	e7c2      	b.n	80013e4 <HAL_NVIC_SetPriority+0xc>
 800145e:	bf00      	nop
 8001460:	e000ed00 	.word	0xe000ed00
 8001464:	e000ecfc 	.word	0xe000ecfc
 8001468:	08003bc4 	.word	0x08003bc4

0800146c <HAL_NVIC_EnableIRQ>:
 800146c:	2800      	cmp	r0, #0
 800146e:	db08      	blt.n	8001482 <HAL_NVIC_EnableIRQ+0x16>
 8001470:	2301      	movs	r3, #1
 8001472:	f000 011f 	and.w	r1, r0, #31
 8001476:	4a05      	ldr	r2, [pc, #20]	; (800148c <HAL_NVIC_EnableIRQ+0x20>)
 8001478:	408b      	lsls	r3, r1
 800147a:	0940      	lsrs	r0, r0, #5
 800147c:	f842 3020 	str.w	r3, [r2, r0, lsl #2]
 8001480:	4770      	bx	lr
 8001482:	21be      	movs	r1, #190	; 0xbe
 8001484:	4802      	ldr	r0, [pc, #8]	; (8001490 <HAL_NVIC_EnableIRQ+0x24>)
 8001486:	f7ff b865 	b.w	8000554 <assert_failed>
 800148a:	bf00      	nop
 800148c:	e000e100 	.word	0xe000e100
 8001490:	08003bc4 	.word	0x08003bc4

08001494 <HAL_NVIC_DisableIRQ>:
 8001494:	2800      	cmp	r0, #0
 8001496:	db0d      	blt.n	80014b4 <HAL_NVIC_DisableIRQ+0x20>
 8001498:	2301      	movs	r3, #1
 800149a:	f000 011f 	and.w	r1, r0, #31
 800149e:	4a07      	ldr	r2, [pc, #28]	; (80014bc <HAL_NVIC_DisableIRQ+0x28>)
 80014a0:	0940      	lsrs	r0, r0, #5
 80014a2:	408b      	lsls	r3, r1
 80014a4:	3020      	adds	r0, #32
 80014a6:	f842 3020 	str.w	r3, [r2, r0, lsl #2]
 80014aa:	f3bf 8f4f 	dsb	sy
 80014ae:	f3bf 8f6f 	isb	sy
 80014b2:	4770      	bx	lr
 80014b4:	21ce      	movs	r1, #206	; 0xce
 80014b6:	4802      	ldr	r0, [pc, #8]	; (80014c0 <HAL_NVIC_DisableIRQ+0x2c>)
 80014b8:	f7ff b84c 	b.w	8000554 <assert_failed>
 80014bc:	e000e100 	.word	0xe000e100
 80014c0:	08003bc4 	.word	0x08003bc4

080014c4 <HAL_SYSTICK_Config>:
 80014c4:	3801      	subs	r0, #1
 80014c6:	f1b0 7f80 	cmp.w	r0, #16777216	; 0x1000000
 80014ca:	d20d      	bcs.n	80014e8 <HAL_SYSTICK_Config+0x24>
 80014cc:	b430      	push	{r4, r5}
 80014ce:	25f0      	movs	r5, #240	; 0xf0
 80014d0:	2200      	movs	r2, #0
 80014d2:	2107      	movs	r1, #7
 80014d4:	4b05      	ldr	r3, [pc, #20]	; (80014ec <HAL_SYSTICK_Config+0x28>)
 80014d6:	4c06      	ldr	r4, [pc, #24]	; (80014f0 <HAL_SYSTICK_Config+0x2c>)
 80014d8:	6058      	str	r0, [r3, #4]
 80014da:	f884 5023 	strb.w	r5, [r4, #35]	; 0x23
 80014de:	4610      	mov	r0, r2
 80014e0:	bc30      	pop	{r4, r5}
 80014e2:	609a      	str	r2, [r3, #8]
 80014e4:	6019      	str	r1, [r3, #0]
 80014e6:	4770      	bx	lr
 80014e8:	2001      	movs	r0, #1
 80014ea:	4770      	bx	lr
 80014ec:	e000e010 	.word	0xe000e010
 80014f0:	e000ed00 	.word	0xe000ed00

080014f4 <HAL_DMA_Abort_IT>:
 80014f4:	f890 2021 	ldrb.w	r2, [r0, #33]	; 0x21
 80014f8:	4603      	mov	r3, r0
 80014fa:	2a02      	cmp	r2, #2
 80014fc:	d003      	beq.n	8001506 <HAL_DMA_Abort_IT+0x12>
 80014fe:	2204      	movs	r2, #4
 8001500:	2001      	movs	r0, #1
 8001502:	639a      	str	r2, [r3, #56]	; 0x38
 8001504:	4770      	bx	lr
 8001506:	6802      	ldr	r2, [r0, #0]
 8001508:	b510      	push	{r4, lr}
 800150a:	6811      	ldr	r1, [r2, #0]
 800150c:	481b      	ldr	r0, [pc, #108]	; (800157c <HAL_DMA_Abort_IT+0x88>)
 800150e:	f021 010e 	bic.w	r1, r1, #14
 8001512:	6011      	str	r1, [r2, #0]
 8001514:	6811      	ldr	r1, [r2, #0]
 8001516:	4282      	cmp	r2, r0
 8001518:	f021 0101 	bic.w	r1, r1, #1
 800151c:	6011      	str	r1, [r2, #0]
 800151e:	d021      	beq.n	8001564 <HAL_DMA_Abort_IT+0x70>
 8001520:	4917      	ldr	r1, [pc, #92]	; (8001580 <HAL_DMA_Abort_IT+0x8c>)
 8001522:	428a      	cmp	r2, r1
 8001524:	d01a      	beq.n	800155c <HAL_DMA_Abort_IT+0x68>
 8001526:	3114      	adds	r1, #20
 8001528:	428a      	cmp	r2, r1
 800152a:	d01d      	beq.n	8001568 <HAL_DMA_Abort_IT+0x74>
 800152c:	3114      	adds	r1, #20
 800152e:	428a      	cmp	r2, r1
 8001530:	d01d      	beq.n	800156e <HAL_DMA_Abort_IT+0x7a>
 8001532:	3114      	adds	r1, #20
 8001534:	428a      	cmp	r2, r1
 8001536:	d01d      	beq.n	8001574 <HAL_DMA_Abort_IT+0x80>
 8001538:	3114      	adds	r1, #20
 800153a:	428a      	cmp	r2, r1
 800153c:	bf0c      	ite	eq
 800153e:	f44f 1280 	moveq.w	r2, #1048576	; 0x100000
 8001542:	f04f 7280 	movne.w	r2, #16777216	; 0x1000000
 8001546:	f44f 7080 	mov.w	r0, #256	; 0x100
 800154a:	4c0e      	ldr	r4, [pc, #56]	; (8001584 <HAL_DMA_Abort_IT+0x90>)
 800154c:	6b59      	ldr	r1, [r3, #52]	; 0x34
 800154e:	6062      	str	r2, [r4, #4]
 8001550:	8418      	strh	r0, [r3, #32]
 8001552:	b129      	cbz	r1, 8001560 <HAL_DMA_Abort_IT+0x6c>
 8001554:	4618      	mov	r0, r3
 8001556:	4788      	blx	r1
 8001558:	2000      	movs	r0, #0
 800155a:	bd10      	pop	{r4, pc}
 800155c:	2210      	movs	r2, #16
 800155e:	e7f2      	b.n	8001546 <HAL_DMA_Abort_IT+0x52>
 8001560:	4608      	mov	r0, r1
 8001562:	bd10      	pop	{r4, pc}
 8001564:	2201      	movs	r2, #1
 8001566:	e7ee      	b.n	8001546 <HAL_DMA_Abort_IT+0x52>
 8001568:	f44f 7280 	mov.w	r2, #256	; 0x100
 800156c:	e7eb      	b.n	8001546 <HAL_DMA_Abort_IT+0x52>
 800156e:	f44f 5280 	mov.w	r2, #4096	; 0x1000
 8001572:	e7e8      	b.n	8001546 <HAL_DMA_Abort_IT+0x52>
 8001574:	f44f 3280 	mov.w	r2, #65536	; 0x10000
 8001578:	e7e5      	b.n	8001546 <HAL_DMA_Abort_IT+0x52>
 800157a:	bf00      	nop
 800157c:	40020008 	.word	0x40020008
 8001580:	4002001c 	.word	0x4002001c
 8001584:	40020000 	.word	0x40020000

08001588 <HAL_DMA_GetState>:
 8001588:	f890 0021 	ldrb.w	r0, [r0, #33]	; 0x21
 800158c:	4770      	bx	lr
 800158e:	bf00      	nop

08001590 <HAL_GPIO_Init>:
 8001590:	e92d 4ff0 	stmdb	sp!, {r4, r5, r6, r7, r8, r9, sl, fp, lr}
 8001594:	4bbb      	ldr	r3, [pc, #748]	; (8001884 <HAL_GPIO_Init+0x2f4>)
 8001596:	4607      	mov	r7, r0
 8001598:	4298      	cmp	r0, r3
 800159a:	4688      	mov	r8, r1
 800159c:	b085      	sub	sp, #20
 800159e:	d013      	beq.n	80015c8 <HAL_GPIO_Init+0x38>
 80015a0:	f503 6380 	add.w	r3, r3, #1024	; 0x400
 80015a4:	4298      	cmp	r0, r3
 80015a6:	d00f      	beq.n	80015c8 <HAL_GPIO_Init+0x38>
 80015a8:	f503 6380 	add.w	r3, r3, #1024	; 0x400
 80015ac:	4298      	cmp	r0, r3
 80015ae:	d00b      	beq.n	80015c8 <HAL_GPIO_Init+0x38>
 80015b0:	f503 6380 	add.w	r3, r3, #1024	; 0x400
 80015b4:	4298      	cmp	r0, r3
 80015b6:	d007      	beq.n	80015c8 <HAL_GPIO_Init+0x38>
 80015b8:	f503 6380 	add.w	r3, r3, #1024	; 0x400
 80015bc:	4298      	cmp	r0, r3
 80015be:	d003      	beq.n	80015c8 <HAL_GPIO_Init+0x38>
 80015c0:	21bd      	movs	r1, #189	; 0xbd
 80015c2:	48b1      	ldr	r0, [pc, #708]	; (8001888 <HAL_GPIO_Init+0x2f8>)
 80015c4:	f7fe ffc6 	bl	8000554 <assert_failed>
 80015c8:	f8d8 1000 	ldr.w	r1, [r8]
 80015cc:	b28b      	uxth	r3, r1
 80015ce:	b123      	cbz	r3, 80015da <HAL_GPIO_Init+0x4a>
 80015d0:	0c0b      	lsrs	r3, r1, #16
 80015d2:	041b      	lsls	r3, r3, #16
 80015d4:	2b00      	cmp	r3, #0
 80015d6:	f000 814a 	beq.w	800186e <HAL_GPIO_Init+0x2de>
 80015da:	21be      	movs	r1, #190	; 0xbe
 80015dc:	48aa      	ldr	r0, [pc, #680]	; (8001888 <HAL_GPIO_Init+0x2f8>)
 80015de:	f7fe ffb9 	bl	8000554 <assert_failed>
 80015e2:	f8d8 3004 	ldr.w	r3, [r8, #4]
 80015e6:	2b01      	cmp	r3, #1
 80015e8:	d91a      	bls.n	8001620 <HAL_GPIO_Init+0x90>
 80015ea:	f1a3 0211 	sub.w	r2, r3, #17
 80015ee:	2a01      	cmp	r2, #1
 80015f0:	d916      	bls.n	8001620 <HAL_GPIO_Init+0x90>
 80015f2:	1e9a      	subs	r2, r3, #2
 80015f4:	2a01      	cmp	r2, #1
 80015f6:	d913      	bls.n	8001620 <HAL_GPIO_Init+0x90>
 80015f8:	49a4      	ldr	r1, [pc, #656]	; (800188c <HAL_GPIO_Init+0x2fc>)
 80015fa:	f423 1200 	bic.w	r2, r3, #2097152	; 0x200000
 80015fe:	428a      	cmp	r2, r1
 8001600:	d00e      	beq.n	8001620 <HAL_GPIO_Init+0x90>
 8001602:	f501 1180 	add.w	r1, r1, #1048576	; 0x100000
 8001606:	428b      	cmp	r3, r1
 8001608:	d00a      	beq.n	8001620 <HAL_GPIO_Init+0x90>
 800160a:	f5a1 2170 	sub.w	r1, r1, #983040	; 0xf0000
 800160e:	428a      	cmp	r2, r1
 8001610:	d006      	beq.n	8001620 <HAL_GPIO_Init+0x90>
 8001612:	4a9f      	ldr	r2, [pc, #636]	; (8001890 <HAL_GPIO_Init+0x300>)
 8001614:	4293      	cmp	r3, r2
 8001616:	d003      	beq.n	8001620 <HAL_GPIO_Init+0x90>
 8001618:	21bf      	movs	r1, #191	; 0xbf
 800161a:	489b      	ldr	r0, [pc, #620]	; (8001888 <HAL_GPIO_Init+0x2f8>)
 800161c:	f7fe ff9a 	bl	8000554 <assert_failed>
 8001620:	f8d8 1000 	ldr.w	r1, [r8]
 8001624:	2900      	cmp	r1, #0
 8001626:	f000 80b9 	beq.w	800179c <HAL_GPIO_Init+0x20c>
 800162a:	2600      	movs	r6, #0
 800162c:	4b95      	ldr	r3, [pc, #596]	; (8001884 <HAL_GPIO_Init+0x2f4>)
 800162e:	4635      	mov	r5, r6
 8001630:	f8df b270 	ldr.w	fp, [pc, #624]	; 80018a4 <HAL_GPIO_Init+0x314>
 8001634:	f8df a270 	ldr.w	sl, [pc, #624]	; 80018a8 <HAL_GPIO_Init+0x318>
 8001638:	4a96      	ldr	r2, [pc, #600]	; (8001894 <HAL_GPIO_Init+0x304>)
 800163a:	e004      	b.n	8001646 <HAL_GPIO_Init+0xb6>
 800163c:	3501      	adds	r5, #1
 800163e:	fa31 f005 	lsrs.w	r0, r1, r5
 8001642:	f000 80ab 	beq.w	800179c <HAL_GPIO_Init+0x20c>
 8001646:	2401      	movs	r4, #1
 8001648:	40ac      	lsls	r4, r5
 800164a:	ea34 0001 	bics.w	r0, r4, r1
 800164e:	ea04 0901 	and.w	r9, r4, r1
 8001652:	d1f3      	bne.n	800163c <HAL_GPIO_Init+0xac>
 8001654:	429f      	cmp	r7, r3
 8001656:	d012      	beq.n	800167e <HAL_GPIO_Init+0xee>
 8001658:	4297      	cmp	r7, r2
 800165a:	d010      	beq.n	800167e <HAL_GPIO_Init+0xee>
 800165c:	498e      	ldr	r1, [pc, #568]	; (8001898 <HAL_GPIO_Init+0x308>)
 800165e:	428f      	cmp	r7, r1
 8001660:	d00d      	beq.n	800167e <HAL_GPIO_Init+0xee>
 8001662:	f501 6180 	add.w	r1, r1, #1024	; 0x400
 8001666:	428f      	cmp	r7, r1
 8001668:	d009      	beq.n	800167e <HAL_GPIO_Init+0xee>
 800166a:	f501 6180 	add.w	r1, r1, #1024	; 0x400
 800166e:	428f      	cmp	r7, r1
 8001670:	d005      	beq.n	800167e <HAL_GPIO_Init+0xee>
 8001672:	21cd      	movs	r1, #205	; 0xcd
 8001674:	4884      	ldr	r0, [pc, #528]	; (8001888 <HAL_GPIO_Init+0x2f8>)
 8001676:	f7fe ff6d 	bl	8000554 <assert_failed>
 800167a:	4a86      	ldr	r2, [pc, #536]	; (8001894 <HAL_GPIO_Init+0x304>)
 800167c:	4b81      	ldr	r3, [pc, #516]	; (8001884 <HAL_GPIO_Init+0x2f4>)
 800167e:	f8d8 1004 	ldr.w	r1, [r8, #4]
 8001682:	2912      	cmp	r1, #18
 8001684:	f200 808d 	bhi.w	80017a2 <HAL_GPIO_Init+0x212>
 8001688:	2912      	cmp	r1, #18
 800168a:	d80c      	bhi.n	80016a6 <HAL_GPIO_Init+0x116>
 800168c:	e8df f001 	tbb	[pc, r1]
 8001690:	0ad9e095 	.word	0x0ad9e095
 8001694:	0b0b0b0b 	.word	0x0b0b0b0b
 8001698:	0b0b0b0b 	.word	0x0b0b0b0b
 800169c:	0b0b0b0b 	.word	0x0b0b0b0b
 80016a0:	d20b      	.short	0xd20b
 80016a2:	cb          	.byte	0xcb
 80016a3:	00          	.byte	0x00
 80016a4:	2600      	movs	r6, #0
 80016a6:	f1b9 0fff 	cmp.w	r9, #255	; 0xff
 80016aa:	f200 8093 	bhi.w	80017d4 <HAL_GPIO_Init+0x244>
 80016ae:	463c      	mov	r4, r7
 80016b0:	ea4f 0c85 	mov.w	ip, r5, lsl #2
 80016b4:	200f      	movs	r0, #15
 80016b6:	6821      	ldr	r1, [r4, #0]
 80016b8:	fa00 fe0c 	lsl.w	lr, r0, ip
 80016bc:	ea21 010e 	bic.w	r1, r1, lr
 80016c0:	fa06 fc0c 	lsl.w	ip, r6, ip
 80016c4:	ea41 010c 	orr.w	r1, r1, ip
 80016c8:	6021      	str	r1, [r4, #0]
 80016ca:	f8d8 4004 	ldr.w	r4, [r8, #4]
 80016ce:	00e1      	lsls	r1, r4, #3
 80016d0:	f140 80a6 	bpl.w	8001820 <HAL_GPIO_Init+0x290>
 80016d4:	f8db c018 	ldr.w	ip, [fp, #24]
 80016d8:	f025 0103 	bic.w	r1, r5, #3
 80016dc:	f04c 0c01 	orr.w	ip, ip, #1
 80016e0:	f8cb c018 	str.w	ip, [fp, #24]
 80016e4:	f8db c018 	ldr.w	ip, [fp, #24]
 80016e8:	f101 4180 	add.w	r1, r1, #1073741824	; 0x40000000
 80016ec:	f00c 0c01 	and.w	ip, ip, #1
 80016f0:	f8cd c00c 	str.w	ip, [sp, #12]
 80016f4:	f501 3180 	add.w	r1, r1, #65536	; 0x10000
 80016f8:	f005 0c03 	and.w	ip, r5, #3
 80016fc:	f8dd e00c 	ldr.w	lr, [sp, #12]
 8001700:	ea4f 0c8c 	mov.w	ip, ip, lsl #2
 8001704:	f8d1 e008 	ldr.w	lr, [r1, #8]
 8001708:	fa00 f00c 	lsl.w	r0, r0, ip
 800170c:	ea2e 0000 	bic.w	r0, lr, r0
 8001710:	429f      	cmp	r7, r3
 8001712:	9001      	str	r0, [sp, #4]
 8001714:	d013      	beq.n	800173e <HAL_GPIO_Init+0x1ae>
 8001716:	4297      	cmp	r7, r2
 8001718:	f000 80d1 	beq.w	80018be <HAL_GPIO_Init+0x32e>
 800171c:	485e      	ldr	r0, [pc, #376]	; (8001898 <HAL_GPIO_Init+0x308>)
 800171e:	4287      	cmp	r7, r0
 8001720:	f000 80c4 	beq.w	80018ac <HAL_GPIO_Init+0x31c>
 8001724:	485d      	ldr	r0, [pc, #372]	; (800189c <HAL_GPIO_Init+0x30c>)
 8001726:	4287      	cmp	r7, r0
 8001728:	bf0c      	ite	eq
 800172a:	f04f 0e03 	moveq.w	lr, #3
 800172e:	f04f 0e04 	movne.w	lr, #4
 8001732:	9801      	ldr	r0, [sp, #4]
 8001734:	fa0e fc0c 	lsl.w	ip, lr, ip
 8001738:	ea40 000c 	orr.w	r0, r0, ip
 800173c:	9001      	str	r0, [sp, #4]
 800173e:	9801      	ldr	r0, [sp, #4]
 8001740:	6088      	str	r0, [r1, #8]
 8001742:	f8da 1000 	ldr.w	r1, [sl]
 8001746:	03e0      	lsls	r0, r4, #15
 8001748:	bf4c      	ite	mi
 800174a:	ea41 0109 	orrmi.w	r1, r1, r9
 800174e:	ea21 0109 	bicpl.w	r1, r1, r9
 8001752:	f8ca 1000 	str.w	r1, [sl]
 8001756:	f8da 1004 	ldr.w	r1, [sl, #4]
 800175a:	03a0      	lsls	r0, r4, #14
 800175c:	bf4c      	ite	mi
 800175e:	ea41 0109 	orrmi.w	r1, r1, r9
 8001762:	ea21 0109 	bicpl.w	r1, r1, r9
 8001766:	f8ca 1004 	str.w	r1, [sl, #4]
 800176a:	f8da 1008 	ldr.w	r1, [sl, #8]
 800176e:	02e0      	lsls	r0, r4, #11
 8001770:	bf4c      	ite	mi
 8001772:	ea41 0109 	orrmi.w	r1, r1, r9
 8001776:	ea21 0109 	bicpl.w	r1, r1, r9
 800177a:	f8ca 1008 	str.w	r1, [sl, #8]
 800177e:	02a0      	lsls	r0, r4, #10
 8001780:	f8da 100c 	ldr.w	r1, [sl, #12]
 8001784:	d548      	bpl.n	8001818 <HAL_GPIO_Init+0x288>
 8001786:	ea41 0109 	orr.w	r1, r1, r9
 800178a:	f8ca 100c 	str.w	r1, [sl, #12]
 800178e:	f8d8 1000 	ldr.w	r1, [r8]
 8001792:	3501      	adds	r5, #1
 8001794:	fa31 f005 	lsrs.w	r0, r1, r5
 8001798:	f47f af55 	bne.w	8001646 <HAL_GPIO_Init+0xb6>
 800179c:	b005      	add	sp, #20
 800179e:	e8bd 8ff0 	ldmia.w	sp!, {r4, r5, r6, r7, r8, r9, sl, fp, pc}
 80017a2:	483b      	ldr	r0, [pc, #236]	; (8001890 <HAL_GPIO_Init+0x300>)
 80017a4:	4281      	cmp	r1, r0
 80017a6:	d008      	beq.n	80017ba <HAL_GPIO_Init+0x22a>
 80017a8:	d91a      	bls.n	80017e0 <HAL_GPIO_Init+0x250>
 80017aa:	483d      	ldr	r0, [pc, #244]	; (80018a0 <HAL_GPIO_Init+0x310>)
 80017ac:	4281      	cmp	r1, r0
 80017ae:	d004      	beq.n	80017ba <HAL_GPIO_Init+0x22a>
 80017b0:	f500 3080 	add.w	r0, r0, #65536	; 0x10000
 80017b4:	4281      	cmp	r1, r0
 80017b6:	f47f af76 	bne.w	80016a6 <HAL_GPIO_Init+0x116>
 80017ba:	f8d8 1008 	ldr.w	r1, [r8, #8]
 80017be:	2902      	cmp	r1, #2
 80017c0:	d81f      	bhi.n	8001802 <HAL_GPIO_Init+0x272>
 80017c2:	2900      	cmp	r1, #0
 80017c4:	f040 8083 	bne.w	80018ce <HAL_GPIO_Init+0x33e>
 80017c8:	f1b9 0fff 	cmp.w	r9, #255	; 0xff
 80017cc:	f04f 0604 	mov.w	r6, #4
 80017d0:	f67f af6d 	bls.w	80016ae <HAL_GPIO_Init+0x11e>
 80017d4:	ea4f 0c85 	mov.w	ip, r5, lsl #2
 80017d8:	f1ac 0c20 	sub.w	ip, ip, #32
 80017dc:	1d3c      	adds	r4, r7, #4
 80017de:	e769      	b.n	80016b4 <HAL_GPIO_Init+0x124>
 80017e0:	f5a0 1080 	sub.w	r0, r0, #1048576	; 0x100000
 80017e4:	4281      	cmp	r1, r0
 80017e6:	d0e8      	beq.n	80017ba <HAL_GPIO_Init+0x22a>
 80017e8:	f500 2070 	add.w	r0, r0, #983040	; 0xf0000
 80017ec:	4281      	cmp	r1, r0
 80017ee:	d0e4      	beq.n	80017ba <HAL_GPIO_Init+0x22a>
 80017f0:	f5a0 1080 	sub.w	r0, r0, #1048576	; 0x100000
 80017f4:	4281      	cmp	r1, r0
 80017f6:	f47f af56 	bne.w	80016a6 <HAL_GPIO_Init+0x116>
 80017fa:	f8d8 1008 	ldr.w	r1, [r8, #8]
 80017fe:	2902      	cmp	r1, #2
 8001800:	d9df      	bls.n	80017c2 <HAL_GPIO_Init+0x232>
 8001802:	21f7      	movs	r1, #247	; 0xf7
 8001804:	4820      	ldr	r0, [pc, #128]	; (8001888 <HAL_GPIO_Init+0x2f8>)
 8001806:	f7fe fea5 	bl	8000554 <assert_failed>
 800180a:	f8d8 1008 	ldr.w	r1, [r8, #8]
 800180e:	4a21      	ldr	r2, [pc, #132]	; (8001894 <HAL_GPIO_Init+0x304>)
 8001810:	4b1c      	ldr	r3, [pc, #112]	; (8001884 <HAL_GPIO_Init+0x2f4>)
 8001812:	2900      	cmp	r1, #0
 8001814:	d0d8      	beq.n	80017c8 <HAL_GPIO_Init+0x238>
 8001816:	e05a      	b.n	80018ce <HAL_GPIO_Init+0x33e>
 8001818:	ea21 0109 	bic.w	r1, r1, r9
 800181c:	f8ca 100c 	str.w	r1, [sl, #12]
 8001820:	f8d8 1000 	ldr.w	r1, [r8]
 8001824:	e70a      	b.n	800163c <HAL_GPIO_Init+0xac>
 8001826:	f8d8 600c 	ldr.w	r6, [r8, #12]
 800182a:	1e71      	subs	r1, r6, #1
 800182c:	2902      	cmp	r1, #2
 800182e:	d855      	bhi.n	80018dc <HAL_GPIO_Init+0x34c>
 8001830:	360c      	adds	r6, #12
 8001832:	e738      	b.n	80016a6 <HAL_GPIO_Init+0x116>
 8001834:	f8d8 600c 	ldr.w	r6, [r8, #12]
 8001838:	1e71      	subs	r1, r6, #1
 800183a:	2902      	cmp	r1, #2
 800183c:	d860      	bhi.n	8001900 <HAL_GPIO_Init+0x370>
 800183e:	3604      	adds	r6, #4
 8001840:	e731      	b.n	80016a6 <HAL_GPIO_Init+0x116>
 8001842:	f8d8 600c 	ldr.w	r6, [r8, #12]
 8001846:	1e71      	subs	r1, r6, #1
 8001848:	2902      	cmp	r1, #2
 800184a:	d850      	bhi.n	80018ee <HAL_GPIO_Init+0x35e>
 800184c:	3608      	adds	r6, #8
 800184e:	e72a      	b.n	80016a6 <HAL_GPIO_Init+0x116>
 8001850:	f8d8 600c 	ldr.w	r6, [r8, #12]
 8001854:	1e71      	subs	r1, r6, #1
 8001856:	2902      	cmp	r1, #2
 8001858:	f67f af25 	bls.w	80016a6 <HAL_GPIO_Init+0x116>
 800185c:	21d5      	movs	r1, #213	; 0xd5
 800185e:	480a      	ldr	r0, [pc, #40]	; (8001888 <HAL_GPIO_Init+0x2f8>)
 8001860:	f7fe fe78 	bl	8000554 <assert_failed>
 8001864:	f8d8 600c 	ldr.w	r6, [r8, #12]
 8001868:	4b06      	ldr	r3, [pc, #24]	; (8001884 <HAL_GPIO_Init+0x2f4>)
 800186a:	4a0a      	ldr	r2, [pc, #40]	; (8001894 <HAL_GPIO_Init+0x304>)
 800186c:	e71b      	b.n	80016a6 <HAL_GPIO_Init+0x116>
 800186e:	f8d8 3004 	ldr.w	r3, [r8, #4]
 8001872:	2b01      	cmp	r3, #1
 8001874:	f67f aed9 	bls.w	800162a <HAL_GPIO_Init+0x9a>
 8001878:	f1a3 0211 	sub.w	r2, r3, #17
 800187c:	2a01      	cmp	r2, #1
 800187e:	f63f aeb8 	bhi.w	80015f2 <HAL_GPIO_Init+0x62>
 8001882:	e6cd      	b.n	8001620 <HAL_GPIO_Init+0x90>
 8001884:	40010800 	.word	0x40010800
 8001888:	08003c00 	.word	0x08003c00
 800188c:	10110000 	.word	0x10110000
 8001890:	10220000 	.word	0x10220000
 8001894:	40010c00 	.word	0x40010c00
 8001898:	40011000 	.word	0x40011000
 800189c:	40011400 	.word	0x40011400
 80018a0:	10310000 	.word	0x10310000
 80018a4:	40021000 	.word	0x40021000
 80018a8:	40010400 	.word	0x40010400
 80018ac:	f04f 0e02 	mov.w	lr, #2
 80018b0:	9801      	ldr	r0, [sp, #4]
 80018b2:	fa0e fc0c 	lsl.w	ip, lr, ip
 80018b6:	ea40 000c 	orr.w	r0, r0, ip
 80018ba:	9001      	str	r0, [sp, #4]
 80018bc:	e73f      	b.n	800173e <HAL_GPIO_Init+0x1ae>
 80018be:	f04f 0e01 	mov.w	lr, #1
 80018c2:	fa0e fc0c 	lsl.w	ip, lr, ip
 80018c6:	ea40 000c 	orr.w	r0, r0, ip
 80018ca:	9001      	str	r0, [sp, #4]
 80018cc:	e737      	b.n	800173e <HAL_GPIO_Init+0x1ae>
 80018ce:	2901      	cmp	r1, #1
 80018d0:	f04f 0608 	mov.w	r6, #8
 80018d4:	bf0c      	ite	eq
 80018d6:	613c      	streq	r4, [r7, #16]
 80018d8:	617c      	strne	r4, [r7, #20]
 80018da:	e6e4      	b.n	80016a6 <HAL_GPIO_Init+0x116>
 80018dc:	21ea      	movs	r1, #234	; 0xea
 80018de:	480d      	ldr	r0, [pc, #52]	; (8001914 <HAL_GPIO_Init+0x384>)
 80018e0:	f7fe fe38 	bl	8000554 <assert_failed>
 80018e4:	f8d8 600c 	ldr.w	r6, [r8, #12]
 80018e8:	4a0b      	ldr	r2, [pc, #44]	; (8001918 <HAL_GPIO_Init+0x388>)
 80018ea:	4b0c      	ldr	r3, [pc, #48]	; (800191c <HAL_GPIO_Init+0x38c>)
 80018ec:	e7a0      	b.n	8001830 <HAL_GPIO_Init+0x2a0>
 80018ee:	21e3      	movs	r1, #227	; 0xe3
 80018f0:	4808      	ldr	r0, [pc, #32]	; (8001914 <HAL_GPIO_Init+0x384>)
 80018f2:	f7fe fe2f 	bl	8000554 <assert_failed>
 80018f6:	f8d8 600c 	ldr.w	r6, [r8, #12]
 80018fa:	4a07      	ldr	r2, [pc, #28]	; (8001918 <HAL_GPIO_Init+0x388>)
 80018fc:	4b07      	ldr	r3, [pc, #28]	; (800191c <HAL_GPIO_Init+0x38c>)
 80018fe:	e7a5      	b.n	800184c <HAL_GPIO_Init+0x2bc>
 8001900:	21dc      	movs	r1, #220	; 0xdc
 8001902:	4804      	ldr	r0, [pc, #16]	; (8001914 <HAL_GPIO_Init+0x384>)
 8001904:	f7fe fe26 	bl	8000554 <assert_failed>
 8001908:	f8d8 600c 	ldr.w	r6, [r8, #12]
 800190c:	4a02      	ldr	r2, [pc, #8]	; (8001918 <HAL_GPIO_Init+0x388>)
 800190e:	4b03      	ldr	r3, [pc, #12]	; (800191c <HAL_GPIO_Init+0x38c>)
 8001910:	e795      	b.n	800183e <HAL_GPIO_Init+0x2ae>
 8001912:	bf00      	nop
 8001914:	08003c00 	.word	0x08003c00
 8001918:	40010c00 	.word	0x40010c00
 800191c:	40010800 	.word	0x40010800

08001920 <HAL_GPIO_ReadPin>:
 8001920:	b538      	push	{r3, r4, r5, lr}
 8001922:	4605      	mov	r5, r0
 8001924:	460c      	mov	r4, r1
 8001926:	b129      	cbz	r1, 8001934 <HAL_GPIO_ReadPin+0x14>
 8001928:	68ab      	ldr	r3, [r5, #8]
 800192a:	421c      	tst	r4, r3
 800192c:	bf14      	ite	ne
 800192e:	2001      	movne	r0, #1
 8001930:	2000      	moveq	r0, #0
 8001932:	bd38      	pop	{r3, r4, r5, pc}
 8001934:	f44f 71da 	mov.w	r1, #436	; 0x1b4
 8001938:	4801      	ldr	r0, [pc, #4]	; (8001940 <HAL_GPIO_ReadPin+0x20>)
 800193a:	f7fe fe0b 	bl	8000554 <assert_failed>
 800193e:	e7f3      	b.n	8001928 <HAL_GPIO_ReadPin+0x8>
 8001940:	08003c00 	.word	0x08003c00

08001944 <HAL_GPIO_WritePin>:
 8001944:	b570      	push	{r4, r5, r6, lr}
 8001946:	4606      	mov	r6, r0
 8001948:	4615      	mov	r5, r2
 800194a:	460c      	mov	r4, r1
 800194c:	b161      	cbz	r1, 8001968 <HAL_GPIO_WritePin+0x24>
 800194e:	2d01      	cmp	r5, #1
 8001950:	d803      	bhi.n	800195a <HAL_GPIO_WritePin+0x16>
 8001952:	b905      	cbnz	r5, 8001956 <HAL_GPIO_WritePin+0x12>
 8001954:	0424      	lsls	r4, r4, #16
 8001956:	6134      	str	r4, [r6, #16]
 8001958:	bd70      	pop	{r4, r5, r6, pc}
 800195a:	f240 11d5 	movw	r1, #469	; 0x1d5
 800195e:	4805      	ldr	r0, [pc, #20]	; (8001974 <HAL_GPIO_WritePin+0x30>)
 8001960:	f7fe fdf8 	bl	8000554 <assert_failed>
 8001964:	6134      	str	r4, [r6, #16]
 8001966:	bd70      	pop	{r4, r5, r6, pc}
 8001968:	f44f 71ea 	mov.w	r1, #468	; 0x1d4
 800196c:	4801      	ldr	r0, [pc, #4]	; (8001974 <HAL_GPIO_WritePin+0x30>)
 800196e:	f7fe fdf1 	bl	8000554 <assert_failed>
 8001972:	e7ec      	b.n	800194e <HAL_GPIO_WritePin+0xa>
 8001974:	08003c00 	.word	0x08003c00

08001978 <HAL_GPIO_TogglePin>:
 8001978:	b538      	push	{r3, r4, r5, lr}
 800197a:	4605      	mov	r5, r0
 800197c:	460c      	mov	r4, r1
 800197e:	b141      	cbz	r1, 8001992 <HAL_GPIO_TogglePin+0x1a>
 8001980:	68e9      	ldr	r1, [r5, #12]
 8001982:	ea04 0301 	and.w	r3, r4, r1
 8001986:	ea24 0401 	bic.w	r4, r4, r1
 800198a:	ea44 4403 	orr.w	r4, r4, r3, lsl #16
 800198e:	612c      	str	r4, [r5, #16]
 8001990:	bd38      	pop	{r3, r4, r5, pc}
 8001992:	f44f 71f6 	mov.w	r1, #492	; 0x1ec
 8001996:	4802      	ldr	r0, [pc, #8]	; (80019a0 <HAL_GPIO_TogglePin+0x28>)
 8001998:	f7fe fddc 	bl	8000554 <assert_failed>
 800199c:	e7f0      	b.n	8001980 <HAL_GPIO_TogglePin+0x8>
 800199e:	bf00      	nop
 80019a0:	08003c00 	.word	0x08003c00

080019a4 <HAL_GPIO_EXTI_IRQHandler>:
 80019a4:	4a04      	ldr	r2, [pc, #16]	; (80019b8 <HAL_GPIO_EXTI_IRQHandler+0x14>)
 80019a6:	6951      	ldr	r1, [r2, #20]
 80019a8:	4201      	tst	r1, r0
 80019aa:	d100      	bne.n	80019ae <HAL_GPIO_EXTI_IRQHandler+0xa>
 80019ac:	4770      	bx	lr
 80019ae:	b508      	push	{r3, lr}
 80019b0:	6150      	str	r0, [r2, #20]
 80019b2:	f7fe ff2b 	bl	800080c <HAL_GPIO_EXTI_Callback>
 80019b6:	bd08      	pop	{r3, pc}
 80019b8:	40010400 	.word	0x40010400

080019bc <HAL_I2C_Init>:
 80019bc:	2800      	cmp	r0, #0
 80019be:	f000 8131 	beq.w	8001c24 <HAL_I2C_Init+0x268>
 80019c2:	b5f8      	push	{r3, r4, r5, r6, r7, lr}
 80019c4:	4a98      	ldr	r2, [pc, #608]	; (8001c28 <HAL_I2C_Init+0x26c>)
 80019c6:	6803      	ldr	r3, [r0, #0]
 80019c8:	4604      	mov	r4, r0
 80019ca:	4293      	cmp	r3, r2
 80019cc:	d008      	beq.n	80019e0 <HAL_I2C_Init+0x24>
 80019ce:	f502 6280 	add.w	r2, r2, #1024	; 0x400
 80019d2:	4293      	cmp	r3, r2
 80019d4:	d004      	beq.n	80019e0 <HAL_I2C_Init+0x24>
 80019d6:	f240 11d1 	movw	r1, #465	; 0x1d1
 80019da:	4894      	ldr	r0, [pc, #592]	; (8001c2c <HAL_I2C_Init+0x270>)
 80019dc:	f7fe fdba 	bl	8000554 <assert_failed>
 80019e0:	6863      	ldr	r3, [r4, #4]
 80019e2:	4a93      	ldr	r2, [pc, #588]	; (8001c30 <HAL_I2C_Init+0x274>)
 80019e4:	3b01      	subs	r3, #1
 80019e6:	4293      	cmp	r3, r2
 80019e8:	f200 8103 	bhi.w	8001bf2 <HAL_I2C_Init+0x236>
 80019ec:	68a3      	ldr	r3, [r4, #8]
 80019ee:	f433 4380 	bics.w	r3, r3, #16384	; 0x4000
 80019f2:	f040 80d9 	bne.w	8001ba8 <HAL_I2C_Init+0x1ec>
 80019f6:	68e3      	ldr	r3, [r4, #12]
 80019f8:	f423 737f 	bic.w	r3, r3, #1020	; 0x3fc
 80019fc:	f023 0303 	bic.w	r3, r3, #3
 8001a00:	2b00      	cmp	r3, #0
 8001a02:	f040 80de 	bne.w	8001bc2 <HAL_I2C_Init+0x206>
 8001a06:	6923      	ldr	r3, [r4, #16]
 8001a08:	f423 4300 	bic.w	r3, r3, #32768	; 0x8000
 8001a0c:	f5b3 4f80 	cmp.w	r3, #16384	; 0x4000
 8001a10:	d004      	beq.n	8001a1c <HAL_I2C_Init+0x60>
 8001a12:	f240 11d5 	movw	r1, #469	; 0x1d5
 8001a16:	4885      	ldr	r0, [pc, #532]	; (8001c2c <HAL_I2C_Init+0x270>)
 8001a18:	f7fe fd9c 	bl	8000554 <assert_failed>
 8001a1c:	6963      	ldr	r3, [r4, #20]
 8001a1e:	2b01      	cmp	r3, #1
 8001a20:	f200 80d5 	bhi.w	8001bce <HAL_I2C_Init+0x212>
 8001a24:	69a3      	ldr	r3, [r4, #24]
 8001a26:	f033 03fe 	bics.w	r3, r3, #254	; 0xfe
 8001a2a:	f040 80da 	bne.w	8001be2 <HAL_I2C_Init+0x226>
 8001a2e:	69e3      	ldr	r3, [r4, #28]
 8001a30:	f033 0340 	bics.w	r3, r3, #64	; 0x40
 8001a34:	d004      	beq.n	8001a40 <HAL_I2C_Init+0x84>
 8001a36:	f44f 71ec 	mov.w	r1, #472	; 0x1d8
 8001a3a:	487c      	ldr	r0, [pc, #496]	; (8001c2c <HAL_I2C_Init+0x270>)
 8001a3c:	f7fe fd8a 	bl	8000554 <assert_failed>
 8001a40:	6a23      	ldr	r3, [r4, #32]
 8001a42:	f033 0380 	bics.w	r3, r3, #128	; 0x80
 8001a46:	f040 809d 	bne.w	8001b84 <HAL_I2C_Init+0x1c8>
 8001a4a:	f894 303d 	ldrb.w	r3, [r4, #61]	; 0x3d
 8001a4e:	f003 02ff 	and.w	r2, r3, #255	; 0xff
 8001a52:	2b00      	cmp	r3, #0
 8001a54:	f000 80a2 	beq.w	8001b9c <HAL_I2C_Init+0x1e0>
 8001a58:	2224      	movs	r2, #36	; 0x24
 8001a5a:	6823      	ldr	r3, [r4, #0]
 8001a5c:	f884 203d 	strb.w	r2, [r4, #61]	; 0x3d
 8001a60:	681a      	ldr	r2, [r3, #0]
 8001a62:	f022 0201 	bic.w	r2, r2, #1
 8001a66:	601a      	str	r2, [r3, #0]
 8001a68:	681a      	ldr	r2, [r3, #0]
 8001a6a:	f442 4200 	orr.w	r2, r2, #32768	; 0x8000
 8001a6e:	601a      	str	r2, [r3, #0]
 8001a70:	681a      	ldr	r2, [r3, #0]
 8001a72:	f422 4200 	bic.w	r2, r2, #32768	; 0x8000
 8001a76:	601a      	str	r2, [r3, #0]
 8001a78:	f001 fc50 	bl	800331c <HAL_RCC_GetPCLK1Freq>
 8001a7c:	6865      	ldr	r5, [r4, #4]
 8001a7e:	4b6d      	ldr	r3, [pc, #436]	; (8001c34 <HAL_I2C_Init+0x278>)
 8001a80:	429d      	cmp	r5, r3
 8001a82:	d84e      	bhi.n	8001b22 <HAL_I2C_Init+0x166>
 8001a84:	4b6c      	ldr	r3, [pc, #432]	; (8001c38 <HAL_I2C_Init+0x27c>)
 8001a86:	4298      	cmp	r0, r3
 8001a88:	f240 80b1 	bls.w	8001bee <HAL_I2C_Init+0x232>
 8001a8c:	1e42      	subs	r2, r0, #1
 8001a8e:	006d      	lsls	r5, r5, #1
 8001a90:	fbb2 f2f5 	udiv	r2, r2, r5
 8001a94:	f640 76fc 	movw	r6, #4092	; 0xffc
 8001a98:	4968      	ldr	r1, [pc, #416]	; (8001c3c <HAL_I2C_Init+0x280>)
 8001a9a:	6823      	ldr	r3, [r4, #0]
 8001a9c:	fba1 1000 	umull	r1, r0, r1, r0
 8001aa0:	6859      	ldr	r1, [r3, #4]
 8001aa2:	3201      	adds	r2, #1
 8001aa4:	f021 013f 	bic.w	r1, r1, #63	; 0x3f
 8001aa8:	ea41 4190 	orr.w	r1, r1, r0, lsr #18
 8001aac:	6059      	str	r1, [r3, #4]
 8001aae:	6a19      	ldr	r1, [r3, #32]
 8001ab0:	0c80      	lsrs	r0, r0, #18
 8001ab2:	f021 013f 	bic.w	r1, r1, #63	; 0x3f
 8001ab6:	3001      	adds	r0, #1
 8001ab8:	4308      	orrs	r0, r1
 8001aba:	6218      	str	r0, [r3, #32]
 8001abc:	69d9      	ldr	r1, [r3, #28]
 8001abe:	4232      	tst	r2, r6
 8001ac0:	f421 414f 	bic.w	r1, r1, #52992	; 0xcf00
 8001ac4:	f021 01ff 	bic.w	r1, r1, #255	; 0xff
 8001ac8:	f040 8099 	bne.w	8001bfe <HAL_I2C_Init+0x242>
 8001acc:	2204      	movs	r2, #4
 8001ace:	2500      	movs	r5, #0
 8001ad0:	2620      	movs	r6, #32
 8001ad2:	430a      	orrs	r2, r1
 8001ad4:	61da      	str	r2, [r3, #28]
 8001ad6:	6819      	ldr	r1, [r3, #0]
 8001ad8:	e9d4 2007 	ldrd	r2, r0, [r4, #28]
 8001adc:	f021 01c0 	bic.w	r1, r1, #192	; 0xc0
 8001ae0:	4302      	orrs	r2, r0
 8001ae2:	430a      	orrs	r2, r1
 8001ae4:	601a      	str	r2, [r3, #0]
 8001ae6:	6899      	ldr	r1, [r3, #8]
 8001ae8:	e9d4 0203 	ldrd	r0, r2, [r4, #12]
 8001aec:	f421 4103 	bic.w	r1, r1, #33536	; 0x8300
 8001af0:	f021 01ff 	bic.w	r1, r1, #255	; 0xff
 8001af4:	4302      	orrs	r2, r0
 8001af6:	430a      	orrs	r2, r1
 8001af8:	609a      	str	r2, [r3, #8]
 8001afa:	68d9      	ldr	r1, [r3, #12]
 8001afc:	e9d4 2005 	ldrd	r2, r0, [r4, #20]
 8001b00:	f021 01ff 	bic.w	r1, r1, #255	; 0xff
 8001b04:	4302      	orrs	r2, r0
 8001b06:	430a      	orrs	r2, r1
 8001b08:	60da      	str	r2, [r3, #12]
 8001b0a:	681a      	ldr	r2, [r3, #0]
 8001b0c:	4628      	mov	r0, r5
 8001b0e:	f042 0201 	orr.w	r2, r2, #1
 8001b12:	601a      	str	r2, [r3, #0]
 8001b14:	6425      	str	r5, [r4, #64]	; 0x40
 8001b16:	f884 603d 	strb.w	r6, [r4, #61]	; 0x3d
 8001b1a:	6325      	str	r5, [r4, #48]	; 0x30
 8001b1c:	f884 503e 	strb.w	r5, [r4, #62]	; 0x3e
 8001b20:	bdf8      	pop	{r3, r4, r5, r6, r7, pc}
 8001b22:	4b47      	ldr	r3, [pc, #284]	; (8001c40 <HAL_I2C_Init+0x284>)
 8001b24:	4298      	cmp	r0, r3
 8001b26:	d962      	bls.n	8001bee <HAL_I2C_Init+0x232>
 8001b28:	f44f 7196 	mov.w	r1, #300	; 0x12c
 8001b2c:	4e43      	ldr	r6, [pc, #268]	; (8001c3c <HAL_I2C_Init+0x280>)
 8001b2e:	6823      	ldr	r3, [r4, #0]
 8001b30:	fba6 2600 	umull	r2, r6, r6, r0
 8001b34:	0cb2      	lsrs	r2, r6, #18
 8001b36:	fb01 f102 	mul.w	r1, r1, r2
 8001b3a:	4f42      	ldr	r7, [pc, #264]	; (8001c44 <HAL_I2C_Init+0x288>)
 8001b3c:	685a      	ldr	r2, [r3, #4]
 8001b3e:	fba7 7101 	umull	r7, r1, r7, r1
 8001b42:	f022 023f 	bic.w	r2, r2, #63	; 0x3f
 8001b46:	ea42 4296 	orr.w	r2, r2, r6, lsr #18
 8001b4a:	605a      	str	r2, [r3, #4]
 8001b4c:	6a1a      	ldr	r2, [r3, #32]
 8001b4e:	0989      	lsrs	r1, r1, #6
 8001b50:	3101      	adds	r1, #1
 8001b52:	f022 023f 	bic.w	r2, r2, #63	; 0x3f
 8001b56:	4311      	orrs	r1, r2
 8001b58:	6219      	str	r1, [r3, #32]
 8001b5a:	69d9      	ldr	r1, [r3, #28]
 8001b5c:	68a6      	ldr	r6, [r4, #8]
 8001b5e:	f421 414f 	bic.w	r1, r1, #52992	; 0xcf00
 8001b62:	f021 01ff 	bic.w	r1, r1, #255	; 0xff
 8001b66:	2e00      	cmp	r6, #0
 8001b68:	d14c      	bne.n	8001c04 <HAL_I2C_Init+0x248>
 8001b6a:	3801      	subs	r0, #1
 8001b6c:	eb05 0245 	add.w	r2, r5, r5, lsl #1
 8001b70:	fbb0 f2f2 	udiv	r2, r0, r2
 8001b74:	3201      	adds	r2, #1
 8001b76:	f3c2 020b 	ubfx	r2, r2, #0, #12
 8001b7a:	2a00      	cmp	r2, #0
 8001b7c:	d050      	beq.n	8001c20 <HAL_I2C_Init+0x264>
 8001b7e:	f442 4200 	orr.w	r2, r2, #32768	; 0x8000
 8001b82:	e7a4      	b.n	8001ace <HAL_I2C_Init+0x112>
 8001b84:	f240 11d9 	movw	r1, #473	; 0x1d9
 8001b88:	4828      	ldr	r0, [pc, #160]	; (8001c2c <HAL_I2C_Init+0x270>)
 8001b8a:	f7fe fce3 	bl	8000554 <assert_failed>
 8001b8e:	f894 303d 	ldrb.w	r3, [r4, #61]	; 0x3d
 8001b92:	f003 02ff 	and.w	r2, r3, #255	; 0xff
 8001b96:	2b00      	cmp	r3, #0
 8001b98:	f47f af5e 	bne.w	8001a58 <HAL_I2C_Init+0x9c>
 8001b9c:	4620      	mov	r0, r4
 8001b9e:	f884 203c 	strb.w	r2, [r4, #60]	; 0x3c
 8001ba2:	f7fe fbc1 	bl	8000328 <HAL_I2C_MspInit>
 8001ba6:	e757      	b.n	8001a58 <HAL_I2C_Init+0x9c>
 8001ba8:	f240 11d3 	movw	r1, #467	; 0x1d3
 8001bac:	481f      	ldr	r0, [pc, #124]	; (8001c2c <HAL_I2C_Init+0x270>)
 8001bae:	f7fe fcd1 	bl	8000554 <assert_failed>
 8001bb2:	68e3      	ldr	r3, [r4, #12]
 8001bb4:	f423 737f 	bic.w	r3, r3, #1020	; 0x3fc
 8001bb8:	f023 0303 	bic.w	r3, r3, #3
 8001bbc:	2b00      	cmp	r3, #0
 8001bbe:	f43f af22 	beq.w	8001a06 <HAL_I2C_Init+0x4a>
 8001bc2:	f44f 71ea 	mov.w	r1, #468	; 0x1d4
 8001bc6:	4819      	ldr	r0, [pc, #100]	; (8001c2c <HAL_I2C_Init+0x270>)
 8001bc8:	f7fe fcc4 	bl	8000554 <assert_failed>
 8001bcc:	e71b      	b.n	8001a06 <HAL_I2C_Init+0x4a>
 8001bce:	f44f 71eb 	mov.w	r1, #470	; 0x1d6
 8001bd2:	4816      	ldr	r0, [pc, #88]	; (8001c2c <HAL_I2C_Init+0x270>)
 8001bd4:	f7fe fcbe 	bl	8000554 <assert_failed>
 8001bd8:	69a3      	ldr	r3, [r4, #24]
 8001bda:	f033 03fe 	bics.w	r3, r3, #254	; 0xfe
 8001bde:	f43f af26 	beq.w	8001a2e <HAL_I2C_Init+0x72>
 8001be2:	f240 11d7 	movw	r1, #471	; 0x1d7
 8001be6:	4811      	ldr	r0, [pc, #68]	; (8001c2c <HAL_I2C_Init+0x270>)
 8001be8:	f7fe fcb4 	bl	8000554 <assert_failed>
 8001bec:	e71f      	b.n	8001a2e <HAL_I2C_Init+0x72>
 8001bee:	2001      	movs	r0, #1
 8001bf0:	bdf8      	pop	{r3, r4, r5, r6, r7, pc}
 8001bf2:	f44f 71e9 	mov.w	r1, #466	; 0x1d2
 8001bf6:	480d      	ldr	r0, [pc, #52]	; (8001c2c <HAL_I2C_Init+0x270>)
 8001bf8:	f7fe fcac 	bl	8000554 <assert_failed>
 8001bfc:	e6f6      	b.n	80019ec <HAL_I2C_Init+0x30>
 8001bfe:	f3c2 020b 	ubfx	r2, r2, #0, #12
 8001c02:	e764      	b.n	8001ace <HAL_I2C_Init+0x112>
 8001c04:	eb05 0285 	add.w	r2, r5, r5, lsl #2
 8001c08:	eb02 0582 	add.w	r5, r2, r2, lsl #2
 8001c0c:	1e42      	subs	r2, r0, #1
 8001c0e:	fbb2 f2f5 	udiv	r2, r2, r5
 8001c12:	3201      	adds	r2, #1
 8001c14:	f3c2 020b 	ubfx	r2, r2, #0, #12
 8001c18:	b112      	cbz	r2, 8001c20 <HAL_I2C_Init+0x264>
 8001c1a:	f442 4240 	orr.w	r2, r2, #49152	; 0xc000
 8001c1e:	e756      	b.n	8001ace <HAL_I2C_Init+0x112>
 8001c20:	2201      	movs	r2, #1
 8001c22:	e754      	b.n	8001ace <HAL_I2C_Init+0x112>
 8001c24:	2001      	movs	r0, #1
 8001c26:	4770      	bx	lr
 8001c28:	40005400 	.word	0x40005400
 8001c2c:	08003c3c 	.word	0x08003c3c
 8001c30:	00061a7f 	.word	0x00061a7f
 8001c34:	000186a0 	.word	0x000186a0
 8001c38:	001e847f 	.word	0x001e847f
 8001c3c:	431bde83 	.word	0x431bde83
 8001c40:	003d08ff 	.word	0x003d08ff
 8001c44:	10624dd3 	.word	0x10624dd3

08001c48 <HAL_I2C_Mem_Write_IT>:
 8001c48:	e92d 43f0 	stmdb	sp!, {r4, r5, r6, r7, r8, r9, lr}
 8001c4c:	461e      	mov	r6, r3
 8001c4e:	2300      	movs	r3, #0
 8001c50:	b083      	sub	sp, #12
 8001c52:	2e01      	cmp	r6, #1
 8001c54:	4605      	mov	r5, r0
 8001c56:	4688      	mov	r8, r1
 8001c58:	4617      	mov	r7, r2
 8001c5a:	f8bd 902c 	ldrh.w	r9, [sp, #44]	; 0x2c
 8001c5e:	9301      	str	r3, [sp, #4]
 8001c60:	d001      	beq.n	8001c66 <HAL_I2C_Mem_Write_IT+0x1e>
 8001c62:	2e10      	cmp	r6, #16
 8001c64:	d12a      	bne.n	8001cbc <HAL_I2C_Mem_Write_IT+0x74>
 8001c66:	f895 303d 	ldrb.w	r3, [r5, #61]	; 0x3d
 8001c6a:	2b20      	cmp	r3, #32
 8001c6c:	d12f      	bne.n	8001cce <HAL_I2C_Mem_Write_IT+0x86>
 8001c6e:	4b33      	ldr	r3, [pc, #204]	; (8001d3c <HAL_I2C_Mem_Write_IT+0xf4>)
 8001c70:	4a33      	ldr	r2, [pc, #204]	; (8001d40 <HAL_I2C_Mem_Write_IT+0xf8>)
 8001c72:	681b      	ldr	r3, [r3, #0]
 8001c74:	08db      	lsrs	r3, r3, #3
 8001c76:	fba2 2303 	umull	r2, r3, r2, r3
 8001c7a:	0a1b      	lsrs	r3, r3, #8
 8001c7c:	eb03 0383 	add.w	r3, r3, r3, lsl #2
 8001c80:	eb03 0383 	add.w	r3, r3, r3, lsl #2
 8001c84:	9301      	str	r3, [sp, #4]
 8001c86:	e003      	b.n	8001c90 <HAL_I2C_Mem_Write_IT+0x48>
 8001c88:	682c      	ldr	r4, [r5, #0]
 8001c8a:	69a0      	ldr	r0, [r4, #24]
 8001c8c:	0782      	lsls	r2, r0, #30
 8001c8e:	d522      	bpl.n	8001cd6 <HAL_I2C_Mem_Write_IT+0x8e>
 8001c90:	9c01      	ldr	r4, [sp, #4]
 8001c92:	3c01      	subs	r4, #1
 8001c94:	9401      	str	r4, [sp, #4]
 8001c96:	9801      	ldr	r0, [sp, #4]
 8001c98:	2800      	cmp	r0, #0
 8001c9a:	d1f5      	bne.n	8001c88 <HAL_I2C_Mem_Write_IT+0x40>
 8001c9c:	2320      	movs	r3, #32
 8001c9e:	6328      	str	r0, [r5, #48]	; 0x30
 8001ca0:	f885 003c 	strb.w	r0, [r5, #60]	; 0x3c
 8001ca4:	f885 303d 	strb.w	r3, [r5, #61]	; 0x3d
 8001ca8:	f885 003e 	strb.w	r0, [r5, #62]	; 0x3e
 8001cac:	2001      	movs	r0, #1
 8001cae:	6c2b      	ldr	r3, [r5, #64]	; 0x40
 8001cb0:	f043 0320 	orr.w	r3, r3, #32
 8001cb4:	642b      	str	r3, [r5, #64]	; 0x40
 8001cb6:	b003      	add	sp, #12
 8001cb8:	e8bd 83f0 	ldmia.w	sp!, {r4, r5, r6, r7, r8, r9, pc}
 8001cbc:	f640 3195 	movw	r1, #2965	; 0xb95
 8001cc0:	4820      	ldr	r0, [pc, #128]	; (8001d44 <HAL_I2C_Mem_Write_IT+0xfc>)
 8001cc2:	f7fe fc47 	bl	8000554 <assert_failed>
 8001cc6:	f895 303d 	ldrb.w	r3, [r5, #61]	; 0x3d
 8001cca:	2b20      	cmp	r3, #32
 8001ccc:	d0cf      	beq.n	8001c6e <HAL_I2C_Mem_Write_IT+0x26>
 8001cce:	2002      	movs	r0, #2
 8001cd0:	b003      	add	sp, #12
 8001cd2:	e8bd 83f0 	ldmia.w	sp!, {r4, r5, r6, r7, r8, r9, pc}
 8001cd6:	f895 303c 	ldrb.w	r3, [r5, #60]	; 0x3c
 8001cda:	2b01      	cmp	r3, #1
 8001cdc:	d0f7      	beq.n	8001cce <HAL_I2C_Mem_Write_IT+0x86>
 8001cde:	6823      	ldr	r3, [r4, #0]
 8001ce0:	07db      	lsls	r3, r3, #31
 8001ce2:	d403      	bmi.n	8001cec <HAL_I2C_Mem_Write_IT+0xa4>
 8001ce4:	6823      	ldr	r3, [r4, #0]
 8001ce6:	f043 0301 	orr.w	r3, r3, #1
 8001cea:	6023      	str	r3, [r4, #0]
 8001cec:	2300      	movs	r3, #0
 8001cee:	f04f 0c21 	mov.w	ip, #33	; 0x21
 8001cf2:	2140      	movs	r1, #64	; 0x40
 8001cf4:	4618      	mov	r0, r3
 8001cf6:	6822      	ldr	r2, [r4, #0]
 8001cf8:	f422 6200 	bic.w	r2, r2, #2048	; 0x800
 8001cfc:	6022      	str	r2, [r4, #0]
 8001cfe:	4a12      	ldr	r2, [pc, #72]	; (8001d48 <HAL_I2C_Mem_Write_IT+0x100>)
 8001d00:	f885 c03d 	strb.w	ip, [r5, #61]	; 0x3d
 8001d04:	f885 103e 	strb.w	r1, [r5, #62]	; 0x3e
 8001d08:	642b      	str	r3, [r5, #64]	; 0x40
 8001d0a:	f8a5 902a 	strh.w	r9, [r5, #42]	; 0x2a
 8001d0e:	8d69      	ldrh	r1, [r5, #42]	; 0x2a
 8001d10:	62ea      	str	r2, [r5, #44]	; 0x2c
 8001d12:	f8c5 8044 	str.w	r8, [r5, #68]	; 0x44
 8001d16:	64af      	str	r7, [r5, #72]	; 0x48
 8001d18:	64ee      	str	r6, [r5, #76]	; 0x4c
 8001d1a:	652b      	str	r3, [r5, #80]	; 0x50
 8001d1c:	6822      	ldr	r2, [r4, #0]
 8001d1e:	9e0a      	ldr	r6, [sp, #40]	; 0x28
 8001d20:	f442 7280 	orr.w	r2, r2, #256	; 0x100
 8001d24:	626e      	str	r6, [r5, #36]	; 0x24
 8001d26:	8529      	strh	r1, [r5, #40]	; 0x28
 8001d28:	6022      	str	r2, [r4, #0]
 8001d2a:	f885 303c 	strb.w	r3, [r5, #60]	; 0x3c
 8001d2e:	6863      	ldr	r3, [r4, #4]
 8001d30:	f443 63e0 	orr.w	r3, r3, #1792	; 0x700
 8001d34:	6063      	str	r3, [r4, #4]
 8001d36:	b003      	add	sp, #12
 8001d38:	e8bd 83f0 	ldmia.w	sp!, {r4, r5, r6, r7, r8, r9, pc}
 8001d3c:	20000000 	.word	0x20000000
 8001d40:	14f8b589 	.word	0x14f8b589
 8001d44:	08003c3c 	.word	0x08003c3c
 8001d48:	ffff0000 	.word	0xffff0000

08001d4c <HAL_I2C_MasterTxCpltCallback>:
 8001d4c:	4770      	bx	lr
 8001d4e:	bf00      	nop

08001d50 <HAL_I2C_MasterRxCpltCallback>:
 8001d50:	4770      	bx	lr
 8001d52:	bf00      	nop

08001d54 <HAL_I2C_SlaveTxCpltCallback>:
 8001d54:	4770      	bx	lr
 8001d56:	bf00      	nop

08001d58 <HAL_I2C_SlaveRxCpltCallback>:
 8001d58:	4770      	bx	lr
 8001d5a:	bf00      	nop

08001d5c <HAL_I2C_AddrCallback>:
 8001d5c:	4770      	bx	lr
 8001d5e:	bf00      	nop

08001d60 <HAL_I2C_ListenCpltCallback>:
 8001d60:	4770      	bx	lr
 8001d62:	bf00      	nop

08001d64 <HAL_I2C_MemTxCpltCallback>:
 8001d64:	4770      	bx	lr
 8001d66:	bf00      	nop

08001d68 <I2C_MemoryTransmit_TXE_BTF>:
 8001d68:	b538      	push	{r3, r4, r5, lr}
 8001d6a:	f890 203d 	ldrb.w	r2, [r0, #61]	; 0x3d
 8001d6e:	6d01      	ldr	r1, [r0, #80]	; 0x50
 8001d70:	4603      	mov	r3, r0
 8001d72:	b959      	cbnz	r1, 8001d8c <I2C_MemoryTransmit_TXE_BTF+0x24>
 8001d74:	6cc2      	ldr	r2, [r0, #76]	; 0x4c
 8001d76:	6801      	ldr	r1, [r0, #0]
 8001d78:	2a01      	cmp	r2, #1
 8001d7a:	6c82      	ldr	r2, [r0, #72]	; 0x48
 8001d7c:	d032      	beq.n	8001de4 <I2C_MemoryTransmit_TXE_BTF+0x7c>
 8001d7e:	f3c2 2207 	ubfx	r2, r2, #8, #8
 8001d82:	610a      	str	r2, [r1, #16]
 8001d84:	6d02      	ldr	r2, [r0, #80]	; 0x50
 8001d86:	3201      	adds	r2, #1
 8001d88:	6502      	str	r2, [r0, #80]	; 0x50
 8001d8a:	bd38      	pop	{r3, r4, r5, pc}
 8001d8c:	6d01      	ldr	r1, [r0, #80]	; 0x50
 8001d8e:	2901      	cmp	r1, #1
 8001d90:	d020      	beq.n	8001dd4 <I2C_MemoryTransmit_TXE_BTF+0x6c>
 8001d92:	6d01      	ldr	r1, [r0, #80]	; 0x50
 8001d94:	2902      	cmp	r1, #2
 8001d96:	d1f8      	bne.n	8001d8a <I2C_MemoryTransmit_TXE_BTF+0x22>
 8001d98:	b2d2      	uxtb	r2, r2
 8001d9a:	2a22      	cmp	r2, #34	; 0x22
 8001d9c:	d02c      	beq.n	8001df8 <I2C_MemoryTransmit_TXE_BTF+0x90>
 8001d9e:	8d41      	ldrh	r1, [r0, #42]	; 0x2a
 8001da0:	b289      	uxth	r1, r1
 8001da2:	bb29      	cbnz	r1, 8001df0 <I2C_MemoryTransmit_TXE_BTF+0x88>
 8001da4:	8d41      	ldrh	r1, [r0, #42]	; 0x2a
 8001da6:	b289      	uxth	r1, r1
 8001da8:	2900      	cmp	r1, #0
 8001daa:	d1ee      	bne.n	8001d8a <I2C_MemoryTransmit_TXE_BTF+0x22>
 8001dac:	2a21      	cmp	r2, #33	; 0x21
 8001dae:	d1ec      	bne.n	8001d8a <I2C_MemoryTransmit_TXE_BTF+0x22>
 8001db0:	2520      	movs	r5, #32
 8001db2:	6802      	ldr	r2, [r0, #0]
 8001db4:	6854      	ldr	r4, [r2, #4]
 8001db6:	f424 64e0 	bic.w	r4, r4, #1792	; 0x700
 8001dba:	6054      	str	r4, [r2, #4]
 8001dbc:	6814      	ldr	r4, [r2, #0]
 8001dbe:	f444 7400 	orr.w	r4, r4, #512	; 0x200
 8001dc2:	6014      	str	r4, [r2, #0]
 8001dc4:	6301      	str	r1, [r0, #48]	; 0x30
 8001dc6:	f880 503d 	strb.w	r5, [r0, #61]	; 0x3d
 8001dca:	f880 103e 	strb.w	r1, [r0, #62]	; 0x3e
 8001dce:	f7ff ffc9 	bl	8001d64 <HAL_I2C_MemTxCpltCallback>
 8001dd2:	bd38      	pop	{r3, r4, r5, pc}
 8001dd4:	6c82      	ldr	r2, [r0, #72]	; 0x48
 8001dd6:	6801      	ldr	r1, [r0, #0]
 8001dd8:	b2d2      	uxtb	r2, r2
 8001dda:	610a      	str	r2, [r1, #16]
 8001ddc:	6d02      	ldr	r2, [r0, #80]	; 0x50
 8001dde:	3201      	adds	r2, #1
 8001de0:	6502      	str	r2, [r0, #80]	; 0x50
 8001de2:	bd38      	pop	{r3, r4, r5, pc}
 8001de4:	b2d2      	uxtb	r2, r2
 8001de6:	610a      	str	r2, [r1, #16]
 8001de8:	6d02      	ldr	r2, [r0, #80]	; 0x50
 8001dea:	3202      	adds	r2, #2
 8001dec:	6502      	str	r2, [r0, #80]	; 0x50
 8001dee:	bd38      	pop	{r3, r4, r5, pc}
 8001df0:	2a21      	cmp	r2, #33	; 0x21
 8001df2:	d00a      	beq.n	8001e0a <I2C_MemoryTransmit_TXE_BTF+0xa2>
 8001df4:	8d5b      	ldrh	r3, [r3, #42]	; 0x2a
 8001df6:	bd38      	pop	{r3, r4, r5, pc}
 8001df8:	6801      	ldr	r1, [r0, #0]
 8001dfa:	680a      	ldr	r2, [r1, #0]
 8001dfc:	f442 7280 	orr.w	r2, r2, #256	; 0x100
 8001e00:	600a      	str	r2, [r1, #0]
 8001e02:	6d02      	ldr	r2, [r0, #80]	; 0x50
 8001e04:	3201      	adds	r2, #1
 8001e06:	6502      	str	r2, [r0, #80]	; 0x50
 8001e08:	bd38      	pop	{r3, r4, r5, pc}
 8001e0a:	6a41      	ldr	r1, [r0, #36]	; 0x24
 8001e0c:	6802      	ldr	r2, [r0, #0]
 8001e0e:	f811 0b01 	ldrb.w	r0, [r1], #1
 8001e12:	6110      	str	r0, [r2, #16]
 8001e14:	8d5a      	ldrh	r2, [r3, #42]	; 0x2a
 8001e16:	6259      	str	r1, [r3, #36]	; 0x24
 8001e18:	3a01      	subs	r2, #1
 8001e1a:	b292      	uxth	r2, r2
 8001e1c:	855a      	strh	r2, [r3, #42]	; 0x2a
 8001e1e:	bd38      	pop	{r3, r4, r5, pc}

08001e20 <HAL_I2C_MemRxCpltCallback>:
 8001e20:	4770      	bx	lr
 8001e22:	bf00      	nop

08001e24 <HAL_I2C_ErrorCallback>:
 8001e24:	4770      	bx	lr
 8001e26:	bf00      	nop

08001e28 <HAL_I2C_AbortCpltCallback>:
 8001e28:	4770      	bx	lr
 8001e2a:	bf00      	nop

08001e2c <I2C_DMAAbort>:
 8001e2c:	2200      	movs	r2, #0
 8001e2e:	4b3a      	ldr	r3, [pc, #232]	; (8001f18 <I2C_DMAAbort+0xec>)
 8001e30:	b570      	push	{r4, r5, r6, lr}
 8001e32:	681b      	ldr	r3, [r3, #0]
 8001e34:	4939      	ldr	r1, [pc, #228]	; (8001f1c <I2C_DMAAbort+0xf0>)
 8001e36:	08db      	lsrs	r3, r3, #3
 8001e38:	fba1 1303 	umull	r1, r3, r1, r3
 8001e3c:	6a40      	ldr	r0, [r0, #36]	; 0x24
 8001e3e:	b082      	sub	sp, #8
 8001e40:	9201      	str	r2, [sp, #4]
 8001e42:	0a1b      	lsrs	r3, r3, #8
 8001e44:	f890 103d 	ldrb.w	r1, [r0, #61]	; 0x3d
 8001e48:	eb03 0383 	add.w	r3, r3, r3, lsl #2
 8001e4c:	ebc3 03c3 	rsb	r3, r3, r3, lsl #3
 8001e50:	6802      	ldr	r2, [r0, #0]
 8001e52:	9301      	str	r3, [sp, #4]
 8001e54:	b2c9      	uxtb	r1, r1
 8001e56:	e005      	b.n	8001e64 <I2C_DMAAbort+0x38>
 8001e58:	9b01      	ldr	r3, [sp, #4]
 8001e5a:	3b01      	subs	r3, #1
 8001e5c:	9301      	str	r3, [sp, #4]
 8001e5e:	6813      	ldr	r3, [r2, #0]
 8001e60:	059b      	lsls	r3, r3, #22
 8001e62:	d506      	bpl.n	8001e72 <I2C_DMAAbort+0x46>
 8001e64:	9b01      	ldr	r3, [sp, #4]
 8001e66:	2b00      	cmp	r3, #0
 8001e68:	d1f6      	bne.n	8001e58 <I2C_DMAAbort+0x2c>
 8001e6a:	6c03      	ldr	r3, [r0, #64]	; 0x40
 8001e6c:	f043 0320 	orr.w	r3, r3, #32
 8001e70:	6403      	str	r3, [r0, #64]	; 0x40
 8001e72:	6b44      	ldr	r4, [r0, #52]	; 0x34
 8001e74:	b34c      	cbz	r4, 8001eca <I2C_DMAAbort+0x9e>
 8001e76:	2500      	movs	r5, #0
 8001e78:	6b83      	ldr	r3, [r0, #56]	; 0x38
 8001e7a:	62a5      	str	r5, [r4, #40]	; 0x28
 8001e7c:	b1f3      	cbz	r3, 8001ebc <I2C_DMAAbort+0x90>
 8001e7e:	6816      	ldr	r6, [r2, #0]
 8001e80:	629d      	str	r5, [r3, #40]	; 0x28
 8001e82:	f426 6680 	bic.w	r6, r6, #1024	; 0x400
 8001e86:	6016      	str	r6, [r2, #0]
 8001e88:	8545      	strh	r5, [r0, #42]	; 0x2a
 8001e8a:	6365      	str	r5, [r4, #52]	; 0x34
 8001e8c:	2400      	movs	r4, #0
 8001e8e:	635c      	str	r4, [r3, #52]	; 0x34
 8001e90:	6813      	ldr	r3, [r2, #0]
 8001e92:	f023 0301 	bic.w	r3, r3, #1
 8001e96:	6013      	str	r3, [r2, #0]
 8001e98:	f890 303d 	ldrb.w	r3, [r0, #61]	; 0x3d
 8001e9c:	2b60      	cmp	r3, #96	; 0x60
 8001e9e:	d02a      	beq.n	8001ef6 <I2C_DMAAbort+0xca>
 8001ea0:	f001 0128 	and.w	r1, r1, #40	; 0x28
 8001ea4:	2928      	cmp	r1, #40	; 0x28
 8001ea6:	d019      	beq.n	8001edc <I2C_DMAAbort+0xb0>
 8001ea8:	2220      	movs	r2, #32
 8001eaa:	2300      	movs	r3, #0
 8001eac:	f880 203d 	strb.w	r2, [r0, #61]	; 0x3d
 8001eb0:	f880 303e 	strb.w	r3, [r0, #62]	; 0x3e
 8001eb4:	f7ff ffb6 	bl	8001e24 <HAL_I2C_ErrorCallback>
 8001eb8:	b002      	add	sp, #8
 8001eba:	bd70      	pop	{r4, r5, r6, pc}
 8001ebc:	6815      	ldr	r5, [r2, #0]
 8001ebe:	f425 6580 	bic.w	r5, r5, #1024	; 0x400
 8001ec2:	6015      	str	r5, [r2, #0]
 8001ec4:	8543      	strh	r3, [r0, #42]	; 0x2a
 8001ec6:	6363      	str	r3, [r4, #52]	; 0x34
 8001ec8:	e7e2      	b.n	8001e90 <I2C_DMAAbort+0x64>
 8001eca:	6b83      	ldr	r3, [r0, #56]	; 0x38
 8001ecc:	b1f3      	cbz	r3, 8001f0c <I2C_DMAAbort+0xe0>
 8001ece:	6815      	ldr	r5, [r2, #0]
 8001ed0:	629c      	str	r4, [r3, #40]	; 0x28
 8001ed2:	f425 6580 	bic.w	r5, r5, #1024	; 0x400
 8001ed6:	6015      	str	r5, [r2, #0]
 8001ed8:	8544      	strh	r4, [r0, #42]	; 0x2a
 8001eda:	e7d7      	b.n	8001e8c <I2C_DMAAbort+0x60>
 8001edc:	2400      	movs	r4, #0
 8001ede:	6813      	ldr	r3, [r2, #0]
 8001ee0:	f043 0301 	orr.w	r3, r3, #1
 8001ee4:	6013      	str	r3, [r2, #0]
 8001ee6:	6813      	ldr	r3, [r2, #0]
 8001ee8:	f443 6380 	orr.w	r3, r3, #1024	; 0x400
 8001eec:	6013      	str	r3, [r2, #0]
 8001eee:	6304      	str	r4, [r0, #48]	; 0x30
 8001ef0:	f880 103d 	strb.w	r1, [r0, #61]	; 0x3d
 8001ef4:	e7de      	b.n	8001eb4 <I2C_DMAAbort+0x88>
 8001ef6:	2300      	movs	r3, #0
 8001ef8:	2220      	movs	r2, #32
 8001efa:	f880 203d 	strb.w	r2, [r0, #61]	; 0x3d
 8001efe:	f880 303e 	strb.w	r3, [r0, #62]	; 0x3e
 8001f02:	6403      	str	r3, [r0, #64]	; 0x40
 8001f04:	f7ff ff90 	bl	8001e28 <HAL_I2C_AbortCpltCallback>
 8001f08:	b002      	add	sp, #8
 8001f0a:	bd70      	pop	{r4, r5, r6, pc}
 8001f0c:	6814      	ldr	r4, [r2, #0]
 8001f0e:	f424 6480 	bic.w	r4, r4, #1024	; 0x400
 8001f12:	6014      	str	r4, [r2, #0]
 8001f14:	8543      	strh	r3, [r0, #42]	; 0x2a
 8001f16:	e7bb      	b.n	8001e90 <I2C_DMAAbort+0x64>
 8001f18:	20000000 	.word	0x20000000
 8001f1c:	14f8b589 	.word	0x14f8b589

08001f20 <I2C_ITError>:
 8001f20:	b510      	push	{r4, lr}
 8001f22:	f890 203d 	ldrb.w	r2, [r0, #61]	; 0x3d
 8001f26:	f890 303e 	ldrb.w	r3, [r0, #62]	; 0x3e
 8001f2a:	4604      	mov	r4, r0
 8001f2c:	2b10      	cmp	r3, #16
 8001f2e:	b2d2      	uxtb	r2, r2
 8001f30:	d039      	beq.n	8001fa6 <I2C_ITError+0x86>
 8001f32:	b2d9      	uxtb	r1, r3
 8001f34:	2940      	cmp	r1, #64	; 0x40
 8001f36:	d036      	beq.n	8001fa6 <I2C_ITError+0x86>
 8001f38:	f002 0128 	and.w	r1, r2, #40	; 0x28
 8001f3c:	2928      	cmp	r1, #40	; 0x28
 8001f3e:	d03d      	beq.n	8001fbc <I2C_ITError+0x9c>
 8001f40:	6823      	ldr	r3, [r4, #0]
 8001f42:	6859      	ldr	r1, [r3, #4]
 8001f44:	0508      	lsls	r0, r1, #20
 8001f46:	d407      	bmi.n	8001f58 <I2C_ITError+0x38>
 8001f48:	2a60      	cmp	r2, #96	; 0x60
 8001f4a:	d005      	beq.n	8001f58 <I2C_ITError+0x38>
 8001f4c:	2120      	movs	r1, #32
 8001f4e:	2200      	movs	r2, #0
 8001f50:	f884 103d 	strb.w	r1, [r4, #61]	; 0x3d
 8001f54:	f884 203e 	strb.w	r2, [r4, #62]	; 0x3e
 8001f58:	2200      	movs	r2, #0
 8001f5a:	6322      	str	r2, [r4, #48]	; 0x30
 8001f5c:	685a      	ldr	r2, [r3, #4]
 8001f5e:	f412 6200 	ands.w	r2, r2, #2048	; 0x800
 8001f62:	d134      	bne.n	8001fce <I2C_ITError+0xae>
 8001f64:	f894 103d 	ldrb.w	r1, [r4, #61]	; 0x3d
 8001f68:	2960      	cmp	r1, #96	; 0x60
 8001f6a:	d075      	beq.n	8002058 <I2C_ITError+0x138>
 8001f6c:	695a      	ldr	r2, [r3, #20]
 8001f6e:	0650      	lsls	r0, r2, #25
 8001f70:	d505      	bpl.n	8001f7e <I2C_ITError+0x5e>
 8001f72:	691a      	ldr	r2, [r3, #16]
 8001f74:	6a63      	ldr	r3, [r4, #36]	; 0x24
 8001f76:	701a      	strb	r2, [r3, #0]
 8001f78:	6a63      	ldr	r3, [r4, #36]	; 0x24
 8001f7a:	3301      	adds	r3, #1
 8001f7c:	6263      	str	r3, [r4, #36]	; 0x24
 8001f7e:	4620      	mov	r0, r4
 8001f80:	f7ff ff50 	bl	8001e24 <HAL_I2C_ErrorCallback>
 8001f84:	6c23      	ldr	r3, [r4, #64]	; 0x40
 8001f86:	0719      	lsls	r1, r3, #28
 8001f88:	d004      	beq.n	8001f94 <I2C_ITError+0x74>
 8001f8a:	6822      	ldr	r2, [r4, #0]
 8001f8c:	6853      	ldr	r3, [r2, #4]
 8001f8e:	f423 63e0 	bic.w	r3, r3, #1792	; 0x700
 8001f92:	6053      	str	r3, [r2, #4]
 8001f94:	f894 303d 	ldrb.w	r3, [r4, #61]	; 0x3d
 8001f98:	6c22      	ldr	r2, [r4, #64]	; 0x40
 8001f9a:	b2db      	uxtb	r3, r3
 8001f9c:	0752      	lsls	r2, r2, #29
 8001f9e:	d501      	bpl.n	8001fa4 <I2C_ITError+0x84>
 8001fa0:	2b28      	cmp	r3, #40	; 0x28
 8001fa2:	d02f      	beq.n	8002004 <I2C_ITError+0xe4>
 8001fa4:	bd10      	pop	{r4, pc}
 8001fa6:	2a22      	cmp	r2, #34	; 0x22
 8001fa8:	d1c6      	bne.n	8001f38 <I2C_ITError+0x18>
 8001faa:	6823      	ldr	r3, [r4, #0]
 8001fac:	681a      	ldr	r2, [r3, #0]
 8001fae:	f422 6200 	bic.w	r2, r2, #2048	; 0x800
 8001fb2:	601a      	str	r2, [r3, #0]
 8001fb4:	685a      	ldr	r2, [r3, #4]
 8001fb6:	0512      	lsls	r2, r2, #20
 8001fb8:	d5c8      	bpl.n	8001f4c <I2C_ITError+0x2c>
 8001fba:	e7cd      	b.n	8001f58 <I2C_ITError+0x38>
 8001fbc:	2200      	movs	r2, #0
 8001fbe:	6823      	ldr	r3, [r4, #0]
 8001fc0:	6322      	str	r2, [r4, #48]	; 0x30
 8001fc2:	f884 103d 	strb.w	r1, [r4, #61]	; 0x3d
 8001fc6:	685a      	ldr	r2, [r3, #4]
 8001fc8:	f412 6200 	ands.w	r2, r2, #2048	; 0x800
 8001fcc:	d0ca      	beq.n	8001f64 <I2C_ITError+0x44>
 8001fce:	685a      	ldr	r2, [r3, #4]
 8001fd0:	6b60      	ldr	r0, [r4, #52]	; 0x34
 8001fd2:	f422 6200 	bic.w	r2, r2, #2048	; 0x800
 8001fd6:	605a      	str	r2, [r3, #4]
 8001fd8:	f890 3021 	ldrb.w	r3, [r0, #33]	; 0x21
 8001fdc:	2b01      	cmp	r3, #1
 8001fde:	d01e      	beq.n	800201e <I2C_ITError+0xfe>
 8001fe0:	4b28      	ldr	r3, [pc, #160]	; (8002084 <I2C_ITError+0x164>)
 8001fe2:	6343      	str	r3, [r0, #52]	; 0x34
 8001fe4:	f7ff fa86 	bl	80014f4 <HAL_DMA_Abort_IT>
 8001fe8:	2800      	cmp	r0, #0
 8001fea:	d0cb      	beq.n	8001f84 <I2C_ITError+0x64>
 8001fec:	2120      	movs	r1, #32
 8001fee:	6822      	ldr	r2, [r4, #0]
 8001ff0:	6b60      	ldr	r0, [r4, #52]	; 0x34
 8001ff2:	6813      	ldr	r3, [r2, #0]
 8001ff4:	f023 0301 	bic.w	r3, r3, #1
 8001ff8:	6013      	str	r3, [r2, #0]
 8001ffa:	f884 103d 	strb.w	r1, [r4, #61]	; 0x3d
 8001ffe:	6b43      	ldr	r3, [r0, #52]	; 0x34
 8002000:	4798      	blx	r3
 8002002:	e7bf      	b.n	8001f84 <I2C_ITError+0x64>
 8002004:	2300      	movs	r3, #0
 8002006:	2220      	movs	r2, #32
 8002008:	491f      	ldr	r1, [pc, #124]	; (8002088 <I2C_ITError+0x168>)
 800200a:	4620      	mov	r0, r4
 800200c:	62e1      	str	r1, [r4, #44]	; 0x2c
 800200e:	6323      	str	r3, [r4, #48]	; 0x30
 8002010:	f884 203d 	strb.w	r2, [r4, #61]	; 0x3d
 8002014:	f884 303e 	strb.w	r3, [r4, #62]	; 0x3e
 8002018:	f7ff fea2 	bl	8001d60 <HAL_I2C_ListenCpltCallback>
 800201c:	bd10      	pop	{r4, pc}
 800201e:	6ba0      	ldr	r0, [r4, #56]	; 0x38
 8002020:	4b18      	ldr	r3, [pc, #96]	; (8002084 <I2C_ITError+0x164>)
 8002022:	6343      	str	r3, [r0, #52]	; 0x34
 8002024:	f7ff fa66 	bl	80014f4 <HAL_DMA_Abort_IT>
 8002028:	2800      	cmp	r0, #0
 800202a:	d0ab      	beq.n	8001f84 <I2C_ITError+0x64>
 800202c:	6823      	ldr	r3, [r4, #0]
 800202e:	695a      	ldr	r2, [r3, #20]
 8002030:	0651      	lsls	r1, r2, #25
 8002032:	d506      	bpl.n	8002042 <I2C_ITError+0x122>
 8002034:	691a      	ldr	r2, [r3, #16]
 8002036:	6a63      	ldr	r3, [r4, #36]	; 0x24
 8002038:	701a      	strb	r2, [r3, #0]
 800203a:	6a62      	ldr	r2, [r4, #36]	; 0x24
 800203c:	6823      	ldr	r3, [r4, #0]
 800203e:	3201      	adds	r2, #1
 8002040:	6262      	str	r2, [r4, #36]	; 0x24
 8002042:	2120      	movs	r1, #32
 8002044:	681a      	ldr	r2, [r3, #0]
 8002046:	6ba0      	ldr	r0, [r4, #56]	; 0x38
 8002048:	f022 0201 	bic.w	r2, r2, #1
 800204c:	601a      	str	r2, [r3, #0]
 800204e:	f884 103d 	strb.w	r1, [r4, #61]	; 0x3d
 8002052:	6b43      	ldr	r3, [r0, #52]	; 0x34
 8002054:	4798      	blx	r3
 8002056:	e795      	b.n	8001f84 <I2C_ITError+0x64>
 8002058:	2120      	movs	r1, #32
 800205a:	f884 103d 	strb.w	r1, [r4, #61]	; 0x3d
 800205e:	6422      	str	r2, [r4, #64]	; 0x40
 8002060:	695a      	ldr	r2, [r3, #20]
 8002062:	0652      	lsls	r2, r2, #25
 8002064:	d506      	bpl.n	8002074 <I2C_ITError+0x154>
 8002066:	691a      	ldr	r2, [r3, #16]
 8002068:	6a63      	ldr	r3, [r4, #36]	; 0x24
 800206a:	701a      	strb	r2, [r3, #0]
 800206c:	6a62      	ldr	r2, [r4, #36]	; 0x24
 800206e:	6823      	ldr	r3, [r4, #0]
 8002070:	3201      	adds	r2, #1
 8002072:	6262      	str	r2, [r4, #36]	; 0x24
 8002074:	681a      	ldr	r2, [r3, #0]
 8002076:	4620      	mov	r0, r4
 8002078:	f022 0201 	bic.w	r2, r2, #1
 800207c:	601a      	str	r2, [r3, #0]
 800207e:	f7ff fed3 	bl	8001e28 <HAL_I2C_AbortCpltCallback>
 8002082:	e77f      	b.n	8001f84 <I2C_ITError+0x64>
 8002084:	08001e2d 	.word	0x08001e2d
 8002088:	ffff0000 	.word	0xffff0000

0800208c <HAL_I2C_EV_IRQHandler>:
 800208c:	b5f0      	push	{r4, r5, r6, r7, lr}
 800208e:	4604      	mov	r4, r0
 8002090:	6803      	ldr	r3, [r0, #0]
 8002092:	b08f      	sub	sp, #60	; 0x3c
 8002094:	6858      	ldr	r0, [r3, #4]
 8002096:	6ae6      	ldr	r6, [r4, #44]	; 0x2c
 8002098:	f894 103e 	ldrb.w	r1, [r4, #62]	; 0x3e
 800209c:	f894 203d 	ldrb.w	r2, [r4, #61]	; 0x3d
 80020a0:	2910      	cmp	r1, #16
 80020a2:	b2cd      	uxtb	r5, r1
 80020a4:	b2d2      	uxtb	r2, r2
 80020a6:	d022      	beq.n	80020ee <HAL_I2C_EV_IRQHandler+0x62>
 80020a8:	2d40      	cmp	r5, #64	; 0x40
 80020aa:	d020      	beq.n	80020ee <HAL_I2C_EV_IRQHandler+0x62>
 80020ac:	6c21      	ldr	r1, [r4, #64]	; 0x40
 80020ae:	2900      	cmp	r1, #0
 80020b0:	f000 8095 	beq.w	80021de <HAL_I2C_EV_IRQHandler+0x152>
 80020b4:	2500      	movs	r5, #0
 80020b6:	6959      	ldr	r1, [r3, #20]
 80020b8:	078f      	lsls	r7, r1, #30
 80020ba:	f3c1 0640 	ubfx	r6, r1, #1, #1
 80020be:	d559      	bpl.n	8002174 <HAL_I2C_EV_IRQHandler+0xe8>
 80020c0:	0586      	lsls	r6, r0, #22
 80020c2:	d559      	bpl.n	8002178 <HAL_I2C_EV_IRQHandler+0xec>
 80020c4:	6c22      	ldr	r2, [r4, #64]	; 0x40
 80020c6:	b102      	cbz	r2, 80020ca <HAL_I2C_EV_IRQHandler+0x3e>
 80020c8:	699d      	ldr	r5, [r3, #24]
 80020ca:	f894 203d 	ldrb.w	r2, [r4, #61]	; 0x3d
 80020ce:	f002 0228 	and.w	r2, r2, #40	; 0x28
 80020d2:	2a28      	cmp	r2, #40	; 0x28
 80020d4:	f000 821d 	beq.w	8002512 <HAL_I2C_EV_IRQHandler+0x486>
 80020d8:	2200      	movs	r2, #0
 80020da:	920c      	str	r2, [sp, #48]	; 0x30
 80020dc:	6959      	ldr	r1, [r3, #20]
 80020de:	910c      	str	r1, [sp, #48]	; 0x30
 80020e0:	699b      	ldr	r3, [r3, #24]
 80020e2:	f884 203c 	strb.w	r2, [r4, #60]	; 0x3c
 80020e6:	930c      	str	r3, [sp, #48]	; 0x30
 80020e8:	9b0c      	ldr	r3, [sp, #48]	; 0x30
 80020ea:	b00f      	add	sp, #60	; 0x3c
 80020ec:	bdf0      	pop	{r4, r5, r6, r7, pc}
 80020ee:	699f      	ldr	r7, [r3, #24]
 80020f0:	6959      	ldr	r1, [r3, #20]
 80020f2:	f011 0f01 	tst.w	r1, #1
 80020f6:	d11a      	bne.n	800212e <HAL_I2C_EV_IRQHandler+0xa2>
 80020f8:	f5b6 0f2a 	cmp.w	r6, #11141120	; 0xaa0000
 80020fc:	d0f5      	beq.n	80020ea <HAL_I2C_EV_IRQHandler+0x5e>
 80020fe:	f1b6 4f2a 	cmp.w	r6, #2852126720	; 0xaa000000
 8002102:	d0f2      	beq.n	80020ea <HAL_I2C_EV_IRQHandler+0x5e>
 8002104:	070e      	lsls	r6, r1, #28
 8002106:	d56d      	bpl.n	80021e4 <HAL_I2C_EV_IRQHandler+0x158>
 8002108:	0586      	lsls	r6, r0, #22
 800210a:	f140 8083 	bpl.w	8002214 <HAL_I2C_EV_IRQHandler+0x188>
 800210e:	6c62      	ldr	r2, [r4, #68]	; 0x44
 8002110:	6b61      	ldr	r1, [r4, #52]	; 0x34
 8002112:	b2d2      	uxtb	r2, r2
 8002114:	611a      	str	r2, [r3, #16]
 8002116:	2900      	cmp	r1, #0
 8002118:	f000 81e2 	beq.w	80024e0 <HAL_I2C_EV_IRQHandler+0x454>
 800211c:	6a8a      	ldr	r2, [r1, #40]	; 0x28
 800211e:	2a00      	cmp	r2, #0
 8002120:	f000 81de 	beq.w	80024e0 <HAL_I2C_EV_IRQHandler+0x454>
 8002124:	685a      	ldr	r2, [r3, #4]
 8002126:	f442 6200 	orr.w	r2, r2, #2048	; 0x800
 800212a:	605a      	str	r2, [r3, #4]
 800212c:	e7dd      	b.n	80020ea <HAL_I2C_EV_IRQHandler+0x5e>
 800212e:	0586      	lsls	r6, r0, #22
 8002130:	d56e      	bpl.n	8002210 <HAL_I2C_EV_IRQHandler+0x184>
 8002132:	6ae2      	ldr	r2, [r4, #44]	; 0x2c
 8002134:	f5b2 0f2a 	cmp.w	r2, #11141120	; 0xaa0000
 8002138:	f000 81e8 	beq.w	800250c <HAL_I2C_EV_IRQHandler+0x480>
 800213c:	6ae2      	ldr	r2, [r4, #44]	; 0x2c
 800213e:	f1b2 4f2a 	cmp.w	r2, #2852126720	; 0xaa000000
 8002142:	bf04      	itt	eq
 8002144:	2208      	moveq	r2, #8
 8002146:	62e2      	streq	r2, [r4, #44]	; 0x2c
 8002148:	f894 203e 	ldrb.w	r2, [r4, #62]	; 0x3e
 800214c:	2a40      	cmp	r2, #64	; 0x40
 800214e:	f000 81d6 	beq.w	80024fe <HAL_I2C_EV_IRQHandler+0x472>
 8002152:	6922      	ldr	r2, [r4, #16]
 8002154:	f5b2 4f80 	cmp.w	r2, #16384	; 0x4000
 8002158:	f000 81b1 	beq.w	80024be <HAL_I2C_EV_IRQHandler+0x432>
 800215c:	6d22      	ldr	r2, [r4, #80]	; 0x50
 800215e:	2a00      	cmp	r2, #0
 8002160:	f040 81eb 	bne.w	800253a <HAL_I2C_EV_IRQHandler+0x4ae>
 8002164:	6c62      	ldr	r2, [r4, #68]	; 0x44
 8002166:	11d2      	asrs	r2, r2, #7
 8002168:	f002 0206 	and.w	r2, r2, #6
 800216c:	f042 02f0 	orr.w	r2, r2, #240	; 0xf0
 8002170:	611a      	str	r2, [r3, #16]
 8002172:	e7ba      	b.n	80020ea <HAL_I2C_EV_IRQHandler+0x5e>
 8002174:	06cf      	lsls	r7, r1, #27
 8002176:	d47b      	bmi.n	8002270 <HAL_I2C_EV_IRQHandler+0x1e4>
 8002178:	f002 02f7 	and.w	r2, r2, #247	; 0xf7
 800217c:	2a21      	cmp	r2, #33	; 0x21
 800217e:	f000 80f4 	beq.w	800236a <HAL_I2C_EV_IRQHandler+0x2de>
 8002182:	064e      	lsls	r6, r1, #25
 8002184:	f140 8131 	bpl.w	80023ea <HAL_I2C_EV_IRQHandler+0x35e>
 8002188:	0545      	lsls	r5, r0, #21
 800218a:	f140 812e 	bpl.w	80023ea <HAL_I2C_EV_IRQHandler+0x35e>
 800218e:	0749      	lsls	r1, r1, #29
 8002190:	f100 812e 	bmi.w	80023f0 <HAL_I2C_EV_IRQHandler+0x364>
 8002194:	f894 103d 	ldrb.w	r1, [r4, #61]	; 0x3d
 8002198:	8d62      	ldrh	r2, [r4, #42]	; 0x2a
 800219a:	b2c9      	uxtb	r1, r1
 800219c:	b292      	uxth	r2, r2
 800219e:	2a00      	cmp	r2, #0
 80021a0:	d0a3      	beq.n	80020ea <HAL_I2C_EV_IRQHandler+0x5e>
 80021a2:	691a      	ldr	r2, [r3, #16]
 80021a4:	6a63      	ldr	r3, [r4, #36]	; 0x24
 80021a6:	701a      	strb	r2, [r3, #0]
 80021a8:	8d63      	ldrh	r3, [r4, #42]	; 0x2a
 80021aa:	6a62      	ldr	r2, [r4, #36]	; 0x24
 80021ac:	3b01      	subs	r3, #1
 80021ae:	b29b      	uxth	r3, r3
 80021b0:	8563      	strh	r3, [r4, #42]	; 0x2a
 80021b2:	8d63      	ldrh	r3, [r4, #42]	; 0x2a
 80021b4:	3201      	adds	r2, #1
 80021b6:	b29b      	uxth	r3, r3
 80021b8:	6262      	str	r2, [r4, #36]	; 0x24
 80021ba:	2b00      	cmp	r3, #0
 80021bc:	d195      	bne.n	80020ea <HAL_I2C_EV_IRQHandler+0x5e>
 80021be:	292a      	cmp	r1, #42	; 0x2a
 80021c0:	d193      	bne.n	80020ea <HAL_I2C_EV_IRQHandler+0x5e>
 80021c2:	2522      	movs	r5, #34	; 0x22
 80021c4:	2128      	movs	r1, #40	; 0x28
 80021c6:	6822      	ldr	r2, [r4, #0]
 80021c8:	4620      	mov	r0, r4
 80021ca:	6853      	ldr	r3, [r2, #4]
 80021cc:	f423 6380 	bic.w	r3, r3, #1024	; 0x400
 80021d0:	6053      	str	r3, [r2, #4]
 80021d2:	6325      	str	r5, [r4, #48]	; 0x30
 80021d4:	f884 103d 	strb.w	r1, [r4, #61]	; 0x3d
 80021d8:	f7ff fdbe 	bl	8001d58 <HAL_I2C_SlaveRxCpltCallback>
 80021dc:	e785      	b.n	80020ea <HAL_I2C_EV_IRQHandler+0x5e>
 80021de:	699d      	ldr	r5, [r3, #24]
 80021e0:	6959      	ldr	r1, [r3, #20]
 80021e2:	e769      	b.n	80020b8 <HAL_I2C_EV_IRQHandler+0x2c>
 80021e4:	078e      	lsls	r6, r1, #30
 80021e6:	d515      	bpl.n	8002214 <HAL_I2C_EV_IRQHandler+0x188>
 80021e8:	0586      	lsls	r6, r0, #22
 80021ea:	d513      	bpl.n	8002214 <HAL_I2C_EV_IRQHandler+0x188>
 80021ec:	f894 203e 	ldrb.w	r2, [r4, #62]	; 0x3e
 80021f0:	6ae0      	ldr	r0, [r4, #44]	; 0x2c
 80021f2:	6b25      	ldr	r5, [r4, #48]	; 0x30
 80021f4:	f894 103d 	ldrb.w	r1, [r4, #61]	; 0x3d
 80021f8:	b2d2      	uxtb	r2, r2
 80021fa:	2922      	cmp	r1, #34	; 0x22
 80021fc:	f000 81b2 	beq.w	8002564 <HAL_I2C_EV_IRQHandler+0x4d8>
 8002200:	2200      	movs	r2, #0
 8002202:	920a      	str	r2, [sp, #40]	; 0x28
 8002204:	695a      	ldr	r2, [r3, #20]
 8002206:	920a      	str	r2, [sp, #40]	; 0x28
 8002208:	699b      	ldr	r3, [r3, #24]
 800220a:	930a      	str	r3, [sp, #40]	; 0x28
 800220c:	9b0a      	ldr	r3, [sp, #40]	; 0x28
 800220e:	e76c      	b.n	80020ea <HAL_I2C_EV_IRQHandler+0x5e>
 8002210:	070e      	lsls	r6, r1, #28
 8002212:	d5e7      	bpl.n	80021e4 <HAL_I2C_EV_IRQHandler+0x158>
 8002214:	077f      	lsls	r7, r7, #29
 8002216:	f140 80f4 	bpl.w	8002402 <HAL_I2C_EV_IRQHandler+0x376>
 800221a:	685e      	ldr	r6, [r3, #4]
 800221c:	0536      	lsls	r6, r6, #20
 800221e:	f53f af64 	bmi.w	80020ea <HAL_I2C_EV_IRQHandler+0x5e>
 8002222:	060f      	lsls	r7, r1, #24
 8002224:	f140 8114 	bpl.w	8002450 <HAL_I2C_EV_IRQHandler+0x3c4>
 8002228:	0546      	lsls	r6, r0, #21
 800222a:	f140 8111 	bpl.w	8002450 <HAL_I2C_EV_IRQHandler+0x3c4>
 800222e:	074f      	lsls	r7, r1, #29
 8002230:	f100 8111 	bmi.w	8002456 <HAL_I2C_EV_IRQHandler+0x3ca>
 8002234:	f894 203d 	ldrb.w	r2, [r4, #61]	; 0x3d
 8002238:	8d20      	ldrh	r0, [r4, #40]	; 0x28
 800223a:	f894 103e 	ldrb.w	r1, [r4, #62]	; 0x3e
 800223e:	b2d2      	uxtb	r2, r2
 8002240:	6ae5      	ldr	r5, [r4, #44]	; 0x2c
 8002242:	b2c9      	uxtb	r1, r1
 8002244:	2800      	cmp	r0, #0
 8002246:	f040 823a 	bne.w	80026be <HAL_I2C_EV_IRQHandler+0x632>
 800224a:	2a21      	cmp	r2, #33	; 0x21
 800224c:	f000 8341 	beq.w	80028d2 <HAL_I2C_EV_IRQHandler+0x846>
 8002250:	2940      	cmp	r1, #64	; 0x40
 8002252:	f47f af4a 	bne.w	80020ea <HAL_I2C_EV_IRQHandler+0x5e>
 8002256:	2a22      	cmp	r2, #34	; 0x22
 8002258:	f47f af47 	bne.w	80020ea <HAL_I2C_EV_IRQHandler+0x5e>
 800225c:	8d62      	ldrh	r2, [r4, #42]	; 0x2a
 800225e:	b292      	uxth	r2, r2
 8002260:	2a00      	cmp	r2, #0
 8002262:	f040 82c1 	bne.w	80027e8 <HAL_I2C_EV_IRQHandler+0x75c>
 8002266:	685a      	ldr	r2, [r3, #4]
 8002268:	f422 6280 	bic.w	r2, r2, #1024	; 0x400
 800226c:	605a      	str	r2, [r3, #4]
 800226e:	e73c      	b.n	80020ea <HAL_I2C_EV_IRQHandler+0x5e>
 8002270:	0585      	lsls	r5, r0, #22
 8002272:	d581      	bpl.n	8002178 <HAL_I2C_EV_IRQHandler+0xec>
 8002274:	f894 503d 	ldrb.w	r5, [r4, #61]	; 0x3d
 8002278:	685a      	ldr	r2, [r3, #4]
 800227a:	b2ed      	uxtb	r5, r5
 800227c:	f422 62e0 	bic.w	r2, r2, #1792	; 0x700
 8002280:	605a      	str	r2, [r3, #4]
 8002282:	960d      	str	r6, [sp, #52]	; 0x34
 8002284:	695a      	ldr	r2, [r3, #20]
 8002286:	920d      	str	r2, [sp, #52]	; 0x34
 8002288:	681a      	ldr	r2, [r3, #0]
 800228a:	f042 0201 	orr.w	r2, r2, #1
 800228e:	601a      	str	r2, [r3, #0]
 8002290:	9a0d      	ldr	r2, [sp, #52]	; 0x34
 8002292:	681a      	ldr	r2, [r3, #0]
 8002294:	f422 6280 	bic.w	r2, r2, #1024	; 0x400
 8002298:	601a      	str	r2, [r3, #0]
 800229a:	685a      	ldr	r2, [r3, #4]
 800229c:	0511      	lsls	r1, r2, #20
 800229e:	d521      	bpl.n	80022e4 <HAL_I2C_EV_IRQHandler+0x258>
 80022a0:	f005 02f7 	and.w	r2, r5, #247	; 0xf7
 80022a4:	2a22      	cmp	r2, #34	; 0x22
 80022a6:	f000 817a 	beq.w	800259e <HAL_I2C_EV_IRQHandler+0x512>
 80022aa:	6b60      	ldr	r0, [r4, #52]	; 0x34
 80022ac:	6802      	ldr	r2, [r0, #0]
 80022ae:	6852      	ldr	r2, [r2, #4]
 80022b0:	b292      	uxth	r2, r2
 80022b2:	8562      	strh	r2, [r4, #42]	; 0x2a
 80022b4:	8d62      	ldrh	r2, [r4, #42]	; 0x2a
 80022b6:	b292      	uxth	r2, r2
 80022b8:	b11a      	cbz	r2, 80022c2 <HAL_I2C_EV_IRQHandler+0x236>
 80022ba:	6c22      	ldr	r2, [r4, #64]	; 0x40
 80022bc:	f042 0204 	orr.w	r2, r2, #4
 80022c0:	6422      	str	r2, [r4, #64]	; 0x40
 80022c2:	685a      	ldr	r2, [r3, #4]
 80022c4:	f422 6200 	bic.w	r2, r2, #2048	; 0x800
 80022c8:	605a      	str	r2, [r3, #4]
 80022ca:	f7ff f95d 	bl	8001588 <HAL_DMA_GetState>
 80022ce:	2801      	cmp	r0, #1
 80022d0:	d008      	beq.n	80022e4 <HAL_I2C_EV_IRQHandler+0x258>
 80022d2:	6b60      	ldr	r0, [r4, #52]	; 0x34
 80022d4:	4ba2      	ldr	r3, [pc, #648]	; (8002560 <HAL_I2C_EV_IRQHandler+0x4d4>)
 80022d6:	6343      	str	r3, [r0, #52]	; 0x34
 80022d8:	f7ff f90c 	bl	80014f4 <HAL_DMA_Abort_IT>
 80022dc:	b110      	cbz	r0, 80022e4 <HAL_I2C_EV_IRQHandler+0x258>
 80022de:	6b60      	ldr	r0, [r4, #52]	; 0x34
 80022e0:	6b43      	ldr	r3, [r0, #52]	; 0x34
 80022e2:	4798      	blx	r3
 80022e4:	8d63      	ldrh	r3, [r4, #42]	; 0x2a
 80022e6:	b29b      	uxth	r3, r3
 80022e8:	b313      	cbz	r3, 8002330 <HAL_I2C_EV_IRQHandler+0x2a4>
 80022ea:	6823      	ldr	r3, [r4, #0]
 80022ec:	695a      	ldr	r2, [r3, #20]
 80022ee:	0752      	lsls	r2, r2, #29
 80022f0:	d50a      	bpl.n	8002308 <HAL_I2C_EV_IRQHandler+0x27c>
 80022f2:	691a      	ldr	r2, [r3, #16]
 80022f4:	6a63      	ldr	r3, [r4, #36]	; 0x24
 80022f6:	701a      	strb	r2, [r3, #0]
 80022f8:	8d62      	ldrh	r2, [r4, #42]	; 0x2a
 80022fa:	6a63      	ldr	r3, [r4, #36]	; 0x24
 80022fc:	3a01      	subs	r2, #1
 80022fe:	1c59      	adds	r1, r3, #1
 8002300:	b292      	uxth	r2, r2
 8002302:	6823      	ldr	r3, [r4, #0]
 8002304:	8562      	strh	r2, [r4, #42]	; 0x2a
 8002306:	6261      	str	r1, [r4, #36]	; 0x24
 8002308:	695a      	ldr	r2, [r3, #20]
 800230a:	0657      	lsls	r7, r2, #25
 800230c:	d509      	bpl.n	8002322 <HAL_I2C_EV_IRQHandler+0x296>
 800230e:	691a      	ldr	r2, [r3, #16]
 8002310:	6a63      	ldr	r3, [r4, #36]	; 0x24
 8002312:	701a      	strb	r2, [r3, #0]
 8002314:	8d63      	ldrh	r3, [r4, #42]	; 0x2a
 8002316:	6a62      	ldr	r2, [r4, #36]	; 0x24
 8002318:	3b01      	subs	r3, #1
 800231a:	b29b      	uxth	r3, r3
 800231c:	3201      	adds	r2, #1
 800231e:	8563      	strh	r3, [r4, #42]	; 0x2a
 8002320:	6262      	str	r2, [r4, #36]	; 0x24
 8002322:	8d63      	ldrh	r3, [r4, #42]	; 0x2a
 8002324:	b29b      	uxth	r3, r3
 8002326:	b11b      	cbz	r3, 8002330 <HAL_I2C_EV_IRQHandler+0x2a4>
 8002328:	6c23      	ldr	r3, [r4, #64]	; 0x40
 800232a:	f043 0304 	orr.w	r3, r3, #4
 800232e:	6423      	str	r3, [r4, #64]	; 0x40
 8002330:	6c23      	ldr	r3, [r4, #64]	; 0x40
 8002332:	2b00      	cmp	r3, #0
 8002334:	f040 80dd 	bne.w	80024f2 <HAL_I2C_EV_IRQHandler+0x466>
 8002338:	2d2a      	cmp	r5, #42	; 0x2a
 800233a:	f000 8151 	beq.w	80025e0 <HAL_I2C_EV_IRQHandler+0x554>
 800233e:	f894 303d 	ldrb.w	r3, [r4, #61]	; 0x3d
 8002342:	2b28      	cmp	r3, #40	; 0x28
 8002344:	f000 8154 	beq.w	80025f0 <HAL_I2C_EV_IRQHandler+0x564>
 8002348:	6b23      	ldr	r3, [r4, #48]	; 0x30
 800234a:	2b22      	cmp	r3, #34	; 0x22
 800234c:	d002      	beq.n	8002354 <HAL_I2C_EV_IRQHandler+0x2c8>
 800234e:	2d22      	cmp	r5, #34	; 0x22
 8002350:	f47f aecb 	bne.w	80020ea <HAL_I2C_EV_IRQHandler+0x5e>
 8002354:	2300      	movs	r3, #0
 8002356:	2220      	movs	r2, #32
 8002358:	6323      	str	r3, [r4, #48]	; 0x30
 800235a:	4620      	mov	r0, r4
 800235c:	f884 203d 	strb.w	r2, [r4, #61]	; 0x3d
 8002360:	f884 303e 	strb.w	r3, [r4, #62]	; 0x3e
 8002364:	f7ff fcf8 	bl	8001d58 <HAL_I2C_SlaveRxCpltCallback>
 8002368:	e6bf      	b.n	80020ea <HAL_I2C_EV_IRQHandler+0x5e>
 800236a:	060e      	lsls	r6, r1, #24
 800236c:	d528      	bpl.n	80023c0 <HAL_I2C_EV_IRQHandler+0x334>
 800236e:	0545      	lsls	r5, r0, #21
 8002370:	d526      	bpl.n	80023c0 <HAL_I2C_EV_IRQHandler+0x334>
 8002372:	0749      	lsls	r1, r1, #29
 8002374:	d427      	bmi.n	80023c6 <HAL_I2C_EV_IRQHandler+0x33a>
 8002376:	f894 003d 	ldrb.w	r0, [r4, #61]	; 0x3d
 800237a:	8d61      	ldrh	r1, [r4, #42]	; 0x2a
 800237c:	b2c0      	uxtb	r0, r0
 800237e:	b289      	uxth	r1, r1
 8002380:	2900      	cmp	r1, #0
 8002382:	f43f aeb2 	beq.w	80020ea <HAL_I2C_EV_IRQHandler+0x5e>
 8002386:	6a65      	ldr	r5, [r4, #36]	; 0x24
 8002388:	f815 1b01 	ldrb.w	r1, [r5], #1
 800238c:	6119      	str	r1, [r3, #16]
 800238e:	8d61      	ldrh	r1, [r4, #42]	; 0x2a
 8002390:	6265      	str	r5, [r4, #36]	; 0x24
 8002392:	3901      	subs	r1, #1
 8002394:	b289      	uxth	r1, r1
 8002396:	8561      	strh	r1, [r4, #42]	; 0x2a
 8002398:	8d61      	ldrh	r1, [r4, #42]	; 0x2a
 800239a:	b289      	uxth	r1, r1
 800239c:	2900      	cmp	r1, #0
 800239e:	f47f aea4 	bne.w	80020ea <HAL_I2C_EV_IRQHandler+0x5e>
 80023a2:	2829      	cmp	r0, #41	; 0x29
 80023a4:	f47f aea1 	bne.w	80020ea <HAL_I2C_EV_IRQHandler+0x5e>
 80023a8:	2528      	movs	r5, #40	; 0x28
 80023aa:	6859      	ldr	r1, [r3, #4]
 80023ac:	4620      	mov	r0, r4
 80023ae:	f421 6180 	bic.w	r1, r1, #1024	; 0x400
 80023b2:	6059      	str	r1, [r3, #4]
 80023b4:	6322      	str	r2, [r4, #48]	; 0x30
 80023b6:	f884 503d 	strb.w	r5, [r4, #61]	; 0x3d
 80023ba:	f7ff fccb 	bl	8001d54 <HAL_I2C_SlaveTxCpltCallback>
 80023be:	e694      	b.n	80020ea <HAL_I2C_EV_IRQHandler+0x5e>
 80023c0:	074a      	lsls	r2, r1, #29
 80023c2:	f57f ae92 	bpl.w	80020ea <HAL_I2C_EV_IRQHandler+0x5e>
 80023c6:	0587      	lsls	r7, r0, #22
 80023c8:	f57f ae8f 	bpl.w	80020ea <HAL_I2C_EV_IRQHandler+0x5e>
 80023cc:	8d62      	ldrh	r2, [r4, #42]	; 0x2a
 80023ce:	b292      	uxth	r2, r2
 80023d0:	2a00      	cmp	r2, #0
 80023d2:	f43f ae8a 	beq.w	80020ea <HAL_I2C_EV_IRQHandler+0x5e>
 80023d6:	6a62      	ldr	r2, [r4, #36]	; 0x24
 80023d8:	f812 1b01 	ldrb.w	r1, [r2], #1
 80023dc:	6119      	str	r1, [r3, #16]
 80023de:	8d63      	ldrh	r3, [r4, #42]	; 0x2a
 80023e0:	6262      	str	r2, [r4, #36]	; 0x24
 80023e2:	3b01      	subs	r3, #1
 80023e4:	b29b      	uxth	r3, r3
 80023e6:	8563      	strh	r3, [r4, #42]	; 0x2a
 80023e8:	e67f      	b.n	80020ea <HAL_I2C_EV_IRQHandler+0x5e>
 80023ea:	074a      	lsls	r2, r1, #29
 80023ec:	f57f ae7d 	bpl.w	80020ea <HAL_I2C_EV_IRQHandler+0x5e>
 80023f0:	0587      	lsls	r7, r0, #22
 80023f2:	f57f ae7a 	bpl.w	80020ea <HAL_I2C_EV_IRQHandler+0x5e>
 80023f6:	8d62      	ldrh	r2, [r4, #42]	; 0x2a
 80023f8:	b292      	uxth	r2, r2
 80023fa:	2a00      	cmp	r2, #0
 80023fc:	f43f ae75 	beq.w	80020ea <HAL_I2C_EV_IRQHandler+0x5e>
 8002400:	e01b      	b.n	800243a <HAL_I2C_EV_IRQHandler+0x3ae>
 8002402:	685a      	ldr	r2, [r3, #4]
 8002404:	0512      	lsls	r2, r2, #20
 8002406:	f53f ae70 	bmi.w	80020ea <HAL_I2C_EV_IRQHandler+0x5e>
 800240a:	064f      	lsls	r7, r1, #25
 800240c:	d432      	bmi.n	8002474 <HAL_I2C_EV_IRQHandler+0x3e8>
 800240e:	0749      	lsls	r1, r1, #29
 8002410:	f57f ae6b 	bpl.w	80020ea <HAL_I2C_EV_IRQHandler+0x5e>
 8002414:	0582      	lsls	r2, r0, #22
 8002416:	f57f ae68 	bpl.w	80020ea <HAL_I2C_EV_IRQHandler+0x5e>
 800241a:	6ae1      	ldr	r1, [r4, #44]	; 0x2c
 800241c:	8d62      	ldrh	r2, [r4, #42]	; 0x2a
 800241e:	b292      	uxth	r2, r2
 8002420:	2a04      	cmp	r2, #4
 8002422:	f000 8119 	beq.w	8002658 <HAL_I2C_EV_IRQHandler+0x5cc>
 8002426:	8d62      	ldrh	r2, [r4, #42]	; 0x2a
 8002428:	b292      	uxth	r2, r2
 800242a:	2a03      	cmp	r2, #3
 800242c:	f000 8159 	beq.w	80026e2 <HAL_I2C_EV_IRQHandler+0x656>
 8002430:	8d62      	ldrh	r2, [r4, #42]	; 0x2a
 8002432:	b292      	uxth	r2, r2
 8002434:	2a02      	cmp	r2, #2
 8002436:	f000 8185 	beq.w	8002744 <HAL_I2C_EV_IRQHandler+0x6b8>
 800243a:	691a      	ldr	r2, [r3, #16]
 800243c:	6a63      	ldr	r3, [r4, #36]	; 0x24
 800243e:	701a      	strb	r2, [r3, #0]
 8002440:	8d63      	ldrh	r3, [r4, #42]	; 0x2a
 8002442:	6a62      	ldr	r2, [r4, #36]	; 0x24
 8002444:	3b01      	subs	r3, #1
 8002446:	b29b      	uxth	r3, r3
 8002448:	3201      	adds	r2, #1
 800244a:	8563      	strh	r3, [r4, #42]	; 0x2a
 800244c:	6262      	str	r2, [r4, #36]	; 0x24
 800244e:	e64c      	b.n	80020ea <HAL_I2C_EV_IRQHandler+0x5e>
 8002450:	074e      	lsls	r6, r1, #29
 8002452:	f57f ae4a 	bpl.w	80020ea <HAL_I2C_EV_IRQHandler+0x5e>
 8002456:	0581      	lsls	r1, r0, #22
 8002458:	f57f ae47 	bpl.w	80020ea <HAL_I2C_EV_IRQHandler+0x5e>
 800245c:	2a21      	cmp	r2, #33	; 0x21
 800245e:	f000 8103 	beq.w	8002668 <HAL_I2C_EV_IRQHandler+0x5dc>
 8002462:	2d40      	cmp	r5, #64	; 0x40
 8002464:	f47f ae41 	bne.w	80020ea <HAL_I2C_EV_IRQHandler+0x5e>
 8002468:	4620      	mov	r0, r4
 800246a:	b00f      	add	sp, #60	; 0x3c
 800246c:	e8bd 40f0 	ldmia.w	sp!, {r4, r5, r6, r7, lr}
 8002470:	f7ff bc7a 	b.w	8001d68 <I2C_MemoryTransmit_TXE_BTF>
 8002474:	0546      	lsls	r6, r0, #21
 8002476:	d5ca      	bpl.n	800240e <HAL_I2C_EV_IRQHandler+0x382>
 8002478:	074d      	lsls	r5, r1, #29
 800247a:	f3c1 0280 	ubfx	r2, r1, #2, #1
 800247e:	d4c9      	bmi.n	8002414 <HAL_I2C_EV_IRQHandler+0x388>
 8002480:	f894 103d 	ldrb.w	r1, [r4, #61]	; 0x3d
 8002484:	2922      	cmp	r1, #34	; 0x22
 8002486:	f47f ae30 	bne.w	80020ea <HAL_I2C_EV_IRQHandler+0x5e>
 800248a:	8d61      	ldrh	r1, [r4, #42]	; 0x2a
 800248c:	b289      	uxth	r1, r1
 800248e:	2903      	cmp	r1, #3
 8002490:	f240 81b0 	bls.w	80027f4 <HAL_I2C_EV_IRQHandler+0x768>
 8002494:	691a      	ldr	r2, [r3, #16]
 8002496:	6a63      	ldr	r3, [r4, #36]	; 0x24
 8002498:	701a      	strb	r2, [r3, #0]
 800249a:	8d63      	ldrh	r3, [r4, #42]	; 0x2a
 800249c:	6a62      	ldr	r2, [r4, #36]	; 0x24
 800249e:	3b01      	subs	r3, #1
 80024a0:	b29b      	uxth	r3, r3
 80024a2:	8563      	strh	r3, [r4, #42]	; 0x2a
 80024a4:	8d63      	ldrh	r3, [r4, #42]	; 0x2a
 80024a6:	3201      	adds	r2, #1
 80024a8:	b29b      	uxth	r3, r3
 80024aa:	2b03      	cmp	r3, #3
 80024ac:	6262      	str	r2, [r4, #36]	; 0x24
 80024ae:	f47f ae1c 	bne.w	80020ea <HAL_I2C_EV_IRQHandler+0x5e>
 80024b2:	6822      	ldr	r2, [r4, #0]
 80024b4:	6853      	ldr	r3, [r2, #4]
 80024b6:	f423 6380 	bic.w	r3, r3, #1024	; 0x400
 80024ba:	6053      	str	r3, [r2, #4]
 80024bc:	e615      	b.n	80020ea <HAL_I2C_EV_IRQHandler+0x5e>
 80024be:	f894 203d 	ldrb.w	r2, [r4, #61]	; 0x3d
 80024c2:	2a21      	cmp	r2, #33	; 0x21
 80024c4:	6c62      	ldr	r2, [r4, #68]	; 0x44
 80024c6:	bf16      	itet	ne
 80024c8:	f042 0201 	orrne.w	r2, r2, #1
 80024cc:	f002 02fe 	andeq.w	r2, r2, #254	; 0xfe
 80024d0:	b2d2      	uxtbne	r2, r2
 80024d2:	611a      	str	r2, [r3, #16]
 80024d4:	6b62      	ldr	r2, [r4, #52]	; 0x34
 80024d6:	b11a      	cbz	r2, 80024e0 <HAL_I2C_EV_IRQHandler+0x454>
 80024d8:	6a92      	ldr	r2, [r2, #40]	; 0x28
 80024da:	2a00      	cmp	r2, #0
 80024dc:	f47f ae22 	bne.w	8002124 <HAL_I2C_EV_IRQHandler+0x98>
 80024e0:	6ba2      	ldr	r2, [r4, #56]	; 0x38
 80024e2:	2a00      	cmp	r2, #0
 80024e4:	f43f ae01 	beq.w	80020ea <HAL_I2C_EV_IRQHandler+0x5e>
 80024e8:	6a92      	ldr	r2, [r2, #40]	; 0x28
 80024ea:	2a00      	cmp	r2, #0
 80024ec:	f47f ae1a 	bne.w	8002124 <HAL_I2C_EV_IRQHandler+0x98>
 80024f0:	e5fb      	b.n	80020ea <HAL_I2C_EV_IRQHandler+0x5e>
 80024f2:	4620      	mov	r0, r4
 80024f4:	b00f      	add	sp, #60	; 0x3c
 80024f6:	e8bd 40f0 	ldmia.w	sp!, {r4, r5, r6, r7, lr}
 80024fa:	f7ff bd11 	b.w	8001f20 <I2C_ITError>
 80024fe:	6d22      	ldr	r2, [r4, #80]	; 0x50
 8002500:	bb3a      	cbnz	r2, 8002552 <HAL_I2C_EV_IRQHandler+0x4c6>
 8002502:	6c62      	ldr	r2, [r4, #68]	; 0x44
 8002504:	f002 02fe 	and.w	r2, r2, #254	; 0xfe
 8002508:	611a      	str	r2, [r3, #16]
 800250a:	e5ee      	b.n	80020ea <HAL_I2C_EV_IRQHandler+0x5e>
 800250c:	2201      	movs	r2, #1
 800250e:	62e2      	str	r2, [r4, #44]	; 0x2c
 8002510:	e61a      	b.n	8002148 <HAL_I2C_EV_IRQHandler+0xbc>
 8002512:	685a      	ldr	r2, [r3, #4]
 8002514:	ea6f 0195 	mvn.w	r1, r5, lsr #2
 8002518:	f422 6280 	bic.w	r2, r2, #1024	; 0x400
 800251c:	605a      	str	r2, [r3, #4]
 800251e:	062b      	lsls	r3, r5, #24
 8002520:	f04f 0300 	mov.w	r3, #0
 8002524:	4620      	mov	r0, r4
 8002526:	bf54      	ite	pl
 8002528:	89a2      	ldrhpl	r2, [r4, #12]
 800252a:	8b22      	ldrhmi	r2, [r4, #24]
 800252c:	f001 0101 	and.w	r1, r1, #1
 8002530:	f884 303c 	strb.w	r3, [r4, #60]	; 0x3c
 8002534:	f7ff fc12 	bl	8001d5c <HAL_I2C_AddrCallback>
 8002538:	e5d7      	b.n	80020ea <HAL_I2C_EV_IRQHandler+0x5e>
 800253a:	6d22      	ldr	r2, [r4, #80]	; 0x50
 800253c:	2a01      	cmp	r2, #1
 800253e:	f47f add4 	bne.w	80020ea <HAL_I2C_EV_IRQHandler+0x5e>
 8002542:	6c62      	ldr	r2, [r4, #68]	; 0x44
 8002544:	11d2      	asrs	r2, r2, #7
 8002546:	f002 0206 	and.w	r2, r2, #6
 800254a:	f042 02f1 	orr.w	r2, r2, #241	; 0xf1
 800254e:	611a      	str	r2, [r3, #16]
 8002550:	e5cb      	b.n	80020ea <HAL_I2C_EV_IRQHandler+0x5e>
 8002552:	6c62      	ldr	r2, [r4, #68]	; 0x44
 8002554:	f042 0201 	orr.w	r2, r2, #1
 8002558:	b2d2      	uxtb	r2, r2
 800255a:	611a      	str	r2, [r3, #16]
 800255c:	e5c5      	b.n	80020ea <HAL_I2C_EV_IRQHandler+0x5e>
 800255e:	bf00      	nop
 8002560:	08001e2d 	.word	0x08001e2d
 8002564:	6d21      	ldr	r1, [r4, #80]	; 0x50
 8002566:	b911      	cbnz	r1, 800256e <HAL_I2C_EV_IRQHandler+0x4e2>
 8002568:	2a40      	cmp	r2, #64	; 0x40
 800256a:	f000 80a1 	beq.w	80026b0 <HAL_I2C_EV_IRQHandler+0x624>
 800256e:	6d22      	ldr	r2, [r4, #80]	; 0x50
 8002570:	b922      	cbnz	r2, 800257c <HAL_I2C_EV_IRQHandler+0x4f0>
 8002572:	6921      	ldr	r1, [r4, #16]
 8002574:	f5b1 4f40 	cmp.w	r1, #49152	; 0xc000
 8002578:	f000 80a5 	beq.w	80026c6 <HAL_I2C_EV_IRQHandler+0x63a>
 800257c:	8d62      	ldrh	r2, [r4, #42]	; 0x2a
 800257e:	b292      	uxth	r2, r2
 8002580:	2a00      	cmp	r2, #0
 8002582:	d142      	bne.n	800260a <HAL_I2C_EV_IRQHandler+0x57e>
 8002584:	9202      	str	r2, [sp, #8]
 8002586:	695a      	ldr	r2, [r3, #20]
 8002588:	9202      	str	r2, [sp, #8]
 800258a:	699a      	ldr	r2, [r3, #24]
 800258c:	9202      	str	r2, [sp, #8]
 800258e:	9a02      	ldr	r2, [sp, #8]
 8002590:	681a      	ldr	r2, [r3, #0]
 8002592:	f442 7200 	orr.w	r2, r2, #512	; 0x200
 8002596:	601a      	str	r2, [r3, #0]
 8002598:	2300      	movs	r3, #0
 800259a:	6523      	str	r3, [r4, #80]	; 0x50
 800259c:	e5a5      	b.n	80020ea <HAL_I2C_EV_IRQHandler+0x5e>
 800259e:	6ba0      	ldr	r0, [r4, #56]	; 0x38
 80025a0:	6802      	ldr	r2, [r0, #0]
 80025a2:	6852      	ldr	r2, [r2, #4]
 80025a4:	b292      	uxth	r2, r2
 80025a6:	8562      	strh	r2, [r4, #42]	; 0x2a
 80025a8:	8d62      	ldrh	r2, [r4, #42]	; 0x2a
 80025aa:	b292      	uxth	r2, r2
 80025ac:	b11a      	cbz	r2, 80025b6 <HAL_I2C_EV_IRQHandler+0x52a>
 80025ae:	6c22      	ldr	r2, [r4, #64]	; 0x40
 80025b0:	f042 0204 	orr.w	r2, r2, #4
 80025b4:	6422      	str	r2, [r4, #64]	; 0x40
 80025b6:	685a      	ldr	r2, [r3, #4]
 80025b8:	f422 6200 	bic.w	r2, r2, #2048	; 0x800
 80025bc:	605a      	str	r2, [r3, #4]
 80025be:	f7fe ffe3 	bl	8001588 <HAL_DMA_GetState>
 80025c2:	2801      	cmp	r0, #1
 80025c4:	f43f ae8e 	beq.w	80022e4 <HAL_I2C_EV_IRQHandler+0x258>
 80025c8:	6ba0      	ldr	r0, [r4, #56]	; 0x38
 80025ca:	4ba6      	ldr	r3, [pc, #664]	; (8002864 <HAL_I2C_EV_IRQHandler+0x7d8>)
 80025cc:	6343      	str	r3, [r0, #52]	; 0x34
 80025ce:	f7fe ff91 	bl	80014f4 <HAL_DMA_Abort_IT>
 80025d2:	2800      	cmp	r0, #0
 80025d4:	f43f ae86 	beq.w	80022e4 <HAL_I2C_EV_IRQHandler+0x258>
 80025d8:	6ba0      	ldr	r0, [r4, #56]	; 0x38
 80025da:	6b43      	ldr	r3, [r0, #52]	; 0x34
 80025dc:	4798      	blx	r3
 80025de:	e681      	b.n	80022e4 <HAL_I2C_EV_IRQHandler+0x258>
 80025e0:	2228      	movs	r2, #40	; 0x28
 80025e2:	6323      	str	r3, [r4, #48]	; 0x30
 80025e4:	4620      	mov	r0, r4
 80025e6:	f884 203d 	strb.w	r2, [r4, #61]	; 0x3d
 80025ea:	f7ff fbb5 	bl	8001d58 <HAL_I2C_SlaveRxCpltCallback>
 80025ee:	e6a6      	b.n	800233e <HAL_I2C_EV_IRQHandler+0x2b2>
 80025f0:	2300      	movs	r3, #0
 80025f2:	2220      	movs	r2, #32
 80025f4:	499c      	ldr	r1, [pc, #624]	; (8002868 <HAL_I2C_EV_IRQHandler+0x7dc>)
 80025f6:	4620      	mov	r0, r4
 80025f8:	62e1      	str	r1, [r4, #44]	; 0x2c
 80025fa:	6323      	str	r3, [r4, #48]	; 0x30
 80025fc:	f884 203d 	strb.w	r2, [r4, #61]	; 0x3d
 8002600:	f884 303e 	strb.w	r3, [r4, #62]	; 0x3e
 8002604:	f7ff fbac 	bl	8001d60 <HAL_I2C_ListenCpltCallback>
 8002608:	e56f      	b.n	80020ea <HAL_I2C_EV_IRQHandler+0x5e>
 800260a:	8d62      	ldrh	r2, [r4, #42]	; 0x2a
 800260c:	b292      	uxth	r2, r2
 800260e:	2a01      	cmp	r2, #1
 8002610:	d076      	beq.n	8002700 <HAL_I2C_EV_IRQHandler+0x674>
 8002612:	8d62      	ldrh	r2, [r4, #42]	; 0x2a
 8002614:	b292      	uxth	r2, r2
 8002616:	2a02      	cmp	r2, #2
 8002618:	f000 812e 	beq.w	8002878 <HAL_I2C_EV_IRQHandler+0x7ec>
 800261c:	681a      	ldr	r2, [r3, #0]
 800261e:	f442 6280 	orr.w	r2, r2, #1024	; 0x400
 8002622:	601a      	str	r2, [r3, #0]
 8002624:	685a      	ldr	r2, [r3, #4]
 8002626:	0511      	lsls	r1, r2, #20
 8002628:	d50e      	bpl.n	8002648 <HAL_I2C_EV_IRQHandler+0x5bc>
 800262a:	f510 3f80 	cmn.w	r0, #65536	; 0x10000
 800262e:	d007      	beq.n	8002640 <HAL_I2C_EV_IRQHandler+0x5b4>
 8002630:	3801      	subs	r0, #1
 8002632:	281f      	cmp	r0, #31
 8002634:	d808      	bhi.n	8002648 <HAL_I2C_EV_IRQHandler+0x5bc>
 8002636:	4a8d      	ldr	r2, [pc, #564]	; (800286c <HAL_I2C_EV_IRQHandler+0x7e0>)
 8002638:	fa22 f000 	lsr.w	r0, r2, r0
 800263c:	07c2      	lsls	r2, r0, #31
 800263e:	d503      	bpl.n	8002648 <HAL_I2C_EV_IRQHandler+0x5bc>
 8002640:	685a      	ldr	r2, [r3, #4]
 8002642:	f442 5280 	orr.w	r2, r2, #4096	; 0x1000
 8002646:	605a      	str	r2, [r3, #4]
 8002648:	2200      	movs	r2, #0
 800264a:	9209      	str	r2, [sp, #36]	; 0x24
 800264c:	695a      	ldr	r2, [r3, #20]
 800264e:	9209      	str	r2, [sp, #36]	; 0x24
 8002650:	699b      	ldr	r3, [r3, #24]
 8002652:	9309      	str	r3, [sp, #36]	; 0x24
 8002654:	9b09      	ldr	r3, [sp, #36]	; 0x24
 8002656:	e79f      	b.n	8002598 <HAL_I2C_EV_IRQHandler+0x50c>
 8002658:	685a      	ldr	r2, [r3, #4]
 800265a:	6a61      	ldr	r1, [r4, #36]	; 0x24
 800265c:	f422 6280 	bic.w	r2, r2, #1024	; 0x400
 8002660:	605a      	str	r2, [r3, #4]
 8002662:	691b      	ldr	r3, [r3, #16]
 8002664:	700b      	strb	r3, [r1, #0]
 8002666:	e6eb      	b.n	8002440 <HAL_I2C_EV_IRQHandler+0x3b4>
 8002668:	6ae1      	ldr	r1, [r4, #44]	; 0x2c
 800266a:	f894 203d 	ldrb.w	r2, [r4, #61]	; 0x3d
 800266e:	2a21      	cmp	r2, #33	; 0x21
 8002670:	f47f ad3b 	bne.w	80020ea <HAL_I2C_EV_IRQHandler+0x5e>
 8002674:	8d62      	ldrh	r2, [r4, #42]	; 0x2a
 8002676:	b292      	uxth	r2, r2
 8002678:	2a00      	cmp	r2, #0
 800267a:	f47f aeac 	bne.w	80023d6 <HAL_I2C_EV_IRQHandler+0x34a>
 800267e:	2908      	cmp	r1, #8
 8002680:	f000 809a 	beq.w	80027b8 <HAL_I2C_EV_IRQHandler+0x72c>
 8002684:	2920      	cmp	r1, #32
 8002686:	f000 8097 	beq.w	80027b8 <HAL_I2C_EV_IRQHandler+0x72c>
 800268a:	f511 3f80 	cmn.w	r1, #65536	; 0x10000
 800268e:	f000 8093 	beq.w	80027b8 <HAL_I2C_EV_IRQHandler+0x72c>
 8002692:	2611      	movs	r6, #17
 8002694:	2520      	movs	r5, #32
 8002696:	4620      	mov	r0, r4
 8002698:	6859      	ldr	r1, [r3, #4]
 800269a:	f421 61e0 	bic.w	r1, r1, #1792	; 0x700
 800269e:	6059      	str	r1, [r3, #4]
 80026a0:	6326      	str	r6, [r4, #48]	; 0x30
 80026a2:	f884 203e 	strb.w	r2, [r4, #62]	; 0x3e
 80026a6:	f884 503d 	strb.w	r5, [r4, #61]	; 0x3d
 80026aa:	f7ff fb4f 	bl	8001d4c <HAL_I2C_MasterTxCpltCallback>
 80026ae:	e51c      	b.n	80020ea <HAL_I2C_EV_IRQHandler+0x5e>
 80026b0:	9100      	str	r1, [sp, #0]
 80026b2:	695a      	ldr	r2, [r3, #20]
 80026b4:	9200      	str	r2, [sp, #0]
 80026b6:	699b      	ldr	r3, [r3, #24]
 80026b8:	9300      	str	r3, [sp, #0]
 80026ba:	9b00      	ldr	r3, [sp, #0]
 80026bc:	e515      	b.n	80020ea <HAL_I2C_EV_IRQHandler+0x5e>
 80026be:	2a21      	cmp	r2, #33	; 0x21
 80026c0:	f43f adcc 	beq.w	800225c <HAL_I2C_EV_IRQHandler+0x1d0>
 80026c4:	e5c4      	b.n	8002250 <HAL_I2C_EV_IRQHandler+0x1c4>
 80026c6:	9201      	str	r2, [sp, #4]
 80026c8:	695a      	ldr	r2, [r3, #20]
 80026ca:	9201      	str	r2, [sp, #4]
 80026cc:	699a      	ldr	r2, [r3, #24]
 80026ce:	9201      	str	r2, [sp, #4]
 80026d0:	9a01      	ldr	r2, [sp, #4]
 80026d2:	681a      	ldr	r2, [r3, #0]
 80026d4:	f442 7280 	orr.w	r2, r2, #256	; 0x100
 80026d8:	601a      	str	r2, [r3, #0]
 80026da:	6d23      	ldr	r3, [r4, #80]	; 0x50
 80026dc:	3301      	adds	r3, #1
 80026de:	6523      	str	r3, [r4, #80]	; 0x50
 80026e0:	e503      	b.n	80020ea <HAL_I2C_EV_IRQHandler+0x5e>
 80026e2:	685a      	ldr	r2, [r3, #4]
 80026e4:	2904      	cmp	r1, #4
 80026e6:	f422 6280 	bic.w	r2, r2, #1024	; 0x400
 80026ea:	605a      	str	r2, [r3, #4]
 80026ec:	f43f aea5 	beq.w	800243a <HAL_I2C_EV_IRQHandler+0x3ae>
 80026f0:	2902      	cmp	r1, #2
 80026f2:	f43f aea2 	beq.w	800243a <HAL_I2C_EV_IRQHandler+0x3ae>
 80026f6:	681a      	ldr	r2, [r3, #0]
 80026f8:	f422 6280 	bic.w	r2, r2, #1024	; 0x400
 80026fc:	601a      	str	r2, [r3, #0]
 80026fe:	e69c      	b.n	800243a <HAL_I2C_EV_IRQHandler+0x3ae>
 8002700:	f510 3f80 	cmn.w	r0, #65536	; 0x10000
 8002704:	f000 8104 	beq.w	8002910 <HAL_I2C_EV_IRQHandler+0x884>
 8002708:	2808      	cmp	r0, #8
 800270a:	f000 80d2 	beq.w	80028b2 <HAL_I2C_EV_IRQHandler+0x826>
 800270e:	2820      	cmp	r0, #32
 8002710:	f000 80cf 	beq.w	80028b2 <HAL_I2C_EV_IRQHandler+0x826>
 8002714:	2d12      	cmp	r5, #18
 8002716:	f000 8145 	beq.w	80029a4 <HAL_I2C_EV_IRQHandler+0x918>
 800271a:	2810      	cmp	r0, #16
 800271c:	f200 8144 	bhi.w	80029a8 <HAL_I2C_EV_IRQHandler+0x91c>
 8002720:	4a53      	ldr	r2, [pc, #332]	; (8002870 <HAL_I2C_EV_IRQHandler+0x7e4>)
 8002722:	fa22 f000 	lsr.w	r0, r2, r0
 8002726:	07c7      	lsls	r7, r0, #31
 8002728:	f140 813e 	bpl.w	80029a8 <HAL_I2C_EV_IRQHandler+0x91c>
 800272c:	681a      	ldr	r2, [r3, #0]
 800272e:	f442 6280 	orr.w	r2, r2, #1024	; 0x400
 8002732:	601a      	str	r2, [r3, #0]
 8002734:	2200      	movs	r2, #0
 8002736:	9205      	str	r2, [sp, #20]
 8002738:	695a      	ldr	r2, [r3, #20]
 800273a:	9205      	str	r2, [sp, #20]
 800273c:	699b      	ldr	r3, [r3, #24]
 800273e:	9305      	str	r3, [sp, #20]
 8002740:	9b05      	ldr	r3, [sp, #20]
 8002742:	e729      	b.n	8002598 <HAL_I2C_EV_IRQHandler+0x50c>
 8002744:	2901      	cmp	r1, #1
 8002746:	681a      	ldr	r2, [r3, #0]
 8002748:	f000 80de 	beq.w	8002908 <HAL_I2C_EV_IRQHandler+0x87c>
 800274c:	2910      	cmp	r1, #16
 800274e:	f000 80db 	beq.w	8002908 <HAL_I2C_EV_IRQHandler+0x87c>
 8002752:	2904      	cmp	r1, #4
 8002754:	f000 8117 	beq.w	8002986 <HAL_I2C_EV_IRQHandler+0x8fa>
 8002758:	2902      	cmp	r1, #2
 800275a:	f000 8114 	beq.w	8002986 <HAL_I2C_EV_IRQHandler+0x8fa>
 800275e:	f442 7200 	orr.w	r2, r2, #512	; 0x200
 8002762:	601a      	str	r2, [r3, #0]
 8002764:	2020      	movs	r0, #32
 8002766:	691a      	ldr	r2, [r3, #16]
 8002768:	6a63      	ldr	r3, [r4, #36]	; 0x24
 800276a:	701a      	strb	r2, [r3, #0]
 800276c:	8d63      	ldrh	r3, [r4, #42]	; 0x2a
 800276e:	6822      	ldr	r2, [r4, #0]
 8002770:	3b01      	subs	r3, #1
 8002772:	b29b      	uxth	r3, r3
 8002774:	8563      	strh	r3, [r4, #42]	; 0x2a
 8002776:	6a63      	ldr	r3, [r4, #36]	; 0x24
 8002778:	6912      	ldr	r2, [r2, #16]
 800277a:	1c59      	adds	r1, r3, #1
 800277c:	6261      	str	r1, [r4, #36]	; 0x24
 800277e:	705a      	strb	r2, [r3, #1]
 8002780:	8d63      	ldrh	r3, [r4, #42]	; 0x2a
 8002782:	6821      	ldr	r1, [r4, #0]
 8002784:	3b01      	subs	r3, #1
 8002786:	b29b      	uxth	r3, r3
 8002788:	8563      	strh	r3, [r4, #42]	; 0x2a
 800278a:	684b      	ldr	r3, [r1, #4]
 800278c:	6a62      	ldr	r2, [r4, #36]	; 0x24
 800278e:	f423 7340 	bic.w	r3, r3, #768	; 0x300
 8002792:	3201      	adds	r2, #1
 8002794:	6262      	str	r2, [r4, #36]	; 0x24
 8002796:	604b      	str	r3, [r1, #4]
 8002798:	f884 003d 	strb.w	r0, [r4, #61]	; 0x3d
 800279c:	f894 303e 	ldrb.w	r3, [r4, #62]	; 0x3e
 80027a0:	2b40      	cmp	r3, #64	; 0x40
 80027a2:	f000 80c9 	beq.w	8002938 <HAL_I2C_EV_IRQHandler+0x8ac>
 80027a6:	2200      	movs	r2, #0
 80027a8:	2312      	movs	r3, #18
 80027aa:	f884 203e 	strb.w	r2, [r4, #62]	; 0x3e
 80027ae:	4620      	mov	r0, r4
 80027b0:	6323      	str	r3, [r4, #48]	; 0x30
 80027b2:	f7ff facd 	bl	8001d50 <HAL_I2C_MasterRxCpltCallback>
 80027b6:	e498      	b.n	80020ea <HAL_I2C_EV_IRQHandler+0x5e>
 80027b8:	2200      	movs	r2, #0
 80027ba:	2020      	movs	r0, #32
 80027bc:	6859      	ldr	r1, [r3, #4]
 80027be:	f421 61e0 	bic.w	r1, r1, #1792	; 0x700
 80027c2:	6059      	str	r1, [r3, #4]
 80027c4:	6819      	ldr	r1, [r3, #0]
 80027c6:	f441 7100 	orr.w	r1, r1, #512	; 0x200
 80027ca:	6019      	str	r1, [r3, #0]
 80027cc:	6322      	str	r2, [r4, #48]	; 0x30
 80027ce:	f884 003d 	strb.w	r0, [r4, #61]	; 0x3d
 80027d2:	f894 303e 	ldrb.w	r3, [r4, #62]	; 0x3e
 80027d6:	4620      	mov	r0, r4
 80027d8:	2b40      	cmp	r3, #64	; 0x40
 80027da:	f884 203e 	strb.w	r2, [r4, #62]	; 0x3e
 80027de:	f47f af64 	bne.w	80026aa <HAL_I2C_EV_IRQHandler+0x61e>
 80027e2:	f7ff fabf 	bl	8001d64 <HAL_I2C_MemTxCpltCallback>
 80027e6:	e480      	b.n	80020ea <HAL_I2C_EV_IRQHandler+0x5e>
 80027e8:	f894 203e 	ldrb.w	r2, [r4, #62]	; 0x3e
 80027ec:	2a40      	cmp	r2, #64	; 0x40
 80027ee:	f47f adf2 	bne.w	80023d6 <HAL_I2C_EV_IRQHandler+0x34a>
 80027f2:	e639      	b.n	8002468 <HAL_I2C_EV_IRQHandler+0x3dc>
 80027f4:	6ae0      	ldr	r0, [r4, #44]	; 0x2c
 80027f6:	2802      	cmp	r0, #2
 80027f8:	f43f ac77 	beq.w	80020ea <HAL_I2C_EV_IRQHandler+0x5e>
 80027fc:	2901      	cmp	r1, #1
 80027fe:	f63f ac74 	bhi.w	80020ea <HAL_I2C_EV_IRQHandler+0x5e>
 8002802:	f246 11a8 	movw	r1, #25000	; 0x61a8
 8002806:	481b      	ldr	r0, [pc, #108]	; (8002874 <HAL_I2C_EV_IRQHandler+0x7e8>)
 8002808:	920b      	str	r2, [sp, #44]	; 0x2c
 800280a:	6802      	ldr	r2, [r0, #0]
 800280c:	fbb2 f2f1 	udiv	r2, r2, r1
 8002810:	eb02 0282 	add.w	r2, r2, r2, lsl #2
 8002814:	920b      	str	r2, [sp, #44]	; 0x2c
 8002816:	e004      	b.n	8002822 <HAL_I2C_EV_IRQHandler+0x796>
 8002818:	681a      	ldr	r2, [r3, #0]
 800281a:	f412 7200 	ands.w	r2, r2, #512	; 0x200
 800281e:	f000 80c8 	beq.w	80029b2 <HAL_I2C_EV_IRQHandler+0x926>
 8002822:	9a0b      	ldr	r2, [sp, #44]	; 0x2c
 8002824:	3a01      	subs	r2, #1
 8002826:	920b      	str	r2, [sp, #44]	; 0x2c
 8002828:	990b      	ldr	r1, [sp, #44]	; 0x2c
 800282a:	2900      	cmp	r1, #0
 800282c:	d1f4      	bne.n	8002818 <HAL_I2C_EV_IRQHandler+0x78c>
 800282e:	2520      	movs	r5, #32
 8002830:	6c22      	ldr	r2, [r4, #64]	; 0x40
 8002832:	6a66      	ldr	r6, [r4, #36]	; 0x24
 8002834:	432a      	orrs	r2, r5
 8002836:	6422      	str	r2, [r4, #64]	; 0x40
 8002838:	685a      	ldr	r2, [r3, #4]
 800283a:	4620      	mov	r0, r4
 800283c:	f422 62e0 	bic.w	r2, r2, #1792	; 0x700
 8002840:	605a      	str	r2, [r3, #4]
 8002842:	691b      	ldr	r3, [r3, #16]
 8002844:	7033      	strb	r3, [r6, #0]
 8002846:	8d63      	ldrh	r3, [r4, #42]	; 0x2a
 8002848:	6a62      	ldr	r2, [r4, #36]	; 0x24
 800284a:	3b01      	subs	r3, #1
 800284c:	b29b      	uxth	r3, r3
 800284e:	3201      	adds	r2, #1
 8002850:	8563      	strh	r3, [r4, #42]	; 0x2a
 8002852:	6262      	str	r2, [r4, #36]	; 0x24
 8002854:	f884 503d 	strb.w	r5, [r4, #61]	; 0x3d
 8002858:	f884 103e 	strb.w	r1, [r4, #62]	; 0x3e
 800285c:	f7ff fae2 	bl	8001e24 <HAL_I2C_ErrorCallback>
 8002860:	e443      	b.n	80020ea <HAL_I2C_EV_IRQHandler+0x5e>
 8002862:	bf00      	nop
 8002864:	08001e2d 	.word	0x08001e2d
 8002868:	ffff0000 	.word	0xffff0000
 800286c:	80008081 	.word	0x80008081
 8002870:	00010014 	.word	0x00010014
 8002874:	20000000 	.word	0x20000000
 8002878:	2810      	cmp	r0, #16
 800287a:	d966      	bls.n	800294a <HAL_I2C_EV_IRQHandler+0x8be>
 800287c:	2100      	movs	r1, #0
 800287e:	681a      	ldr	r2, [r3, #0]
 8002880:	f442 6200 	orr.w	r2, r2, #2048	; 0x800
 8002884:	601a      	str	r2, [r3, #0]
 8002886:	9107      	str	r1, [sp, #28]
 8002888:	695a      	ldr	r2, [r3, #20]
 800288a:	9207      	str	r2, [sp, #28]
 800288c:	699a      	ldr	r2, [r3, #24]
 800288e:	9207      	str	r2, [sp, #28]
 8002890:	9a07      	ldr	r2, [sp, #28]
 8002892:	681a      	ldr	r2, [r3, #0]
 8002894:	f422 6280 	bic.w	r2, r2, #1024	; 0x400
 8002898:	601a      	str	r2, [r3, #0]
 800289a:	685a      	ldr	r2, [r3, #4]
 800289c:	0516      	lsls	r6, r2, #20
 800289e:	f57f ae7b 	bpl.w	8002598 <HAL_I2C_EV_IRQHandler+0x50c>
 80028a2:	f510 3f80 	cmn.w	r0, #65536	; 0x10000
 80028a6:	d164      	bne.n	8002972 <HAL_I2C_EV_IRQHandler+0x8e6>
 80028a8:	685a      	ldr	r2, [r3, #4]
 80028aa:	f442 5280 	orr.w	r2, r2, #4096	; 0x1000
 80028ae:	605a      	str	r2, [r3, #4]
 80028b0:	e672      	b.n	8002598 <HAL_I2C_EV_IRQHandler+0x50c>
 80028b2:	2100      	movs	r1, #0
 80028b4:	681a      	ldr	r2, [r3, #0]
 80028b6:	f422 6280 	bic.w	r2, r2, #1024	; 0x400
 80028ba:	601a      	str	r2, [r3, #0]
 80028bc:	9106      	str	r1, [sp, #24]
 80028be:	695a      	ldr	r2, [r3, #20]
 80028c0:	9206      	str	r2, [sp, #24]
 80028c2:	699a      	ldr	r2, [r3, #24]
 80028c4:	9206      	str	r2, [sp, #24]
 80028c6:	9a06      	ldr	r2, [sp, #24]
 80028c8:	681a      	ldr	r2, [r3, #0]
 80028ca:	f442 7200 	orr.w	r2, r2, #512	; 0x200
 80028ce:	601a      	str	r2, [r3, #0]
 80028d0:	e662      	b.n	8002598 <HAL_I2C_EV_IRQHandler+0x50c>
 80028d2:	2d08      	cmp	r5, #8
 80028d4:	f43f af70 	beq.w	80027b8 <HAL_I2C_EV_IRQHandler+0x72c>
 80028d8:	2d20      	cmp	r5, #32
 80028da:	f43f af6d 	beq.w	80027b8 <HAL_I2C_EV_IRQHandler+0x72c>
 80028de:	f515 3f80 	cmn.w	r5, #65536	; 0x10000
 80028e2:	f43f af69 	beq.w	80027b8 <HAL_I2C_EV_IRQHandler+0x72c>
 80028e6:	2611      	movs	r6, #17
 80028e8:	2500      	movs	r5, #0
 80028ea:	2120      	movs	r1, #32
 80028ec:	685a      	ldr	r2, [r3, #4]
 80028ee:	4620      	mov	r0, r4
 80028f0:	f422 62e0 	bic.w	r2, r2, #1792	; 0x700
 80028f4:	605a      	str	r2, [r3, #4]
 80028f6:	6326      	str	r6, [r4, #48]	; 0x30
 80028f8:	f884 503e 	strb.w	r5, [r4, #62]	; 0x3e
 80028fc:	f884 103d 	strb.w	r1, [r4, #61]	; 0x3d
 8002900:	f7ff fa24 	bl	8001d4c <HAL_I2C_MasterTxCpltCallback>
 8002904:	f7ff bbf1 	b.w	80020ea <HAL_I2C_EV_IRQHandler+0x5e>
 8002908:	f422 6280 	bic.w	r2, r2, #1024	; 0x400
 800290c:	601a      	str	r2, [r3, #0]
 800290e:	e729      	b.n	8002764 <HAL_I2C_EV_IRQHandler+0x6d8>
 8002910:	681a      	ldr	r2, [r3, #0]
 8002912:	f422 6280 	bic.w	r2, r2, #1024	; 0x400
 8002916:	601a      	str	r2, [r3, #0]
 8002918:	685a      	ldr	r2, [r3, #4]
 800291a:	f412 6200 	ands.w	r2, r2, #2048	; 0x800
 800291e:	d036      	beq.n	800298e <HAL_I2C_EV_IRQHandler+0x902>
 8002920:	2100      	movs	r1, #0
 8002922:	681a      	ldr	r2, [r3, #0]
 8002924:	f422 6280 	bic.w	r2, r2, #1024	; 0x400
 8002928:	601a      	str	r2, [r3, #0]
 800292a:	9103      	str	r1, [sp, #12]
 800292c:	695a      	ldr	r2, [r3, #20]
 800292e:	9203      	str	r2, [sp, #12]
 8002930:	699b      	ldr	r3, [r3, #24]
 8002932:	9303      	str	r3, [sp, #12]
 8002934:	9b03      	ldr	r3, [sp, #12]
 8002936:	e62f      	b.n	8002598 <HAL_I2C_EV_IRQHandler+0x50c>
 8002938:	2300      	movs	r3, #0
 800293a:	4620      	mov	r0, r4
 800293c:	f884 303e 	strb.w	r3, [r4, #62]	; 0x3e
 8002940:	6323      	str	r3, [r4, #48]	; 0x30
 8002942:	f7ff fa6d 	bl	8001e20 <HAL_I2C_MemRxCpltCallback>
 8002946:	f7ff bbd0 	b.w	80020ea <HAL_I2C_EV_IRQHandler+0x5e>
 800294a:	4a2b      	ldr	r2, [pc, #172]	; (80029f8 <HAL_I2C_EV_IRQHandler+0x96c>)
 800294c:	40c2      	lsrs	r2, r0
 800294e:	43d2      	mvns	r2, r2
 8002950:	f012 0201 	ands.w	r2, r2, #1
 8002954:	d192      	bne.n	800287c <HAL_I2C_EV_IRQHandler+0x7f0>
 8002956:	6819      	ldr	r1, [r3, #0]
 8002958:	f441 6180 	orr.w	r1, r1, #1024	; 0x400
 800295c:	6019      	str	r1, [r3, #0]
 800295e:	9208      	str	r2, [sp, #32]
 8002960:	695a      	ldr	r2, [r3, #20]
 8002962:	9208      	str	r2, [sp, #32]
 8002964:	699a      	ldr	r2, [r3, #24]
 8002966:	9208      	str	r2, [sp, #32]
 8002968:	9a08      	ldr	r2, [sp, #32]
 800296a:	685a      	ldr	r2, [r3, #4]
 800296c:	0515      	lsls	r5, r2, #20
 800296e:	f57f ae13 	bpl.w	8002598 <HAL_I2C_EV_IRQHandler+0x50c>
 8002972:	3801      	subs	r0, #1
 8002974:	281f      	cmp	r0, #31
 8002976:	f63f ae0f 	bhi.w	8002598 <HAL_I2C_EV_IRQHandler+0x50c>
 800297a:	4a20      	ldr	r2, [pc, #128]	; (80029fc <HAL_I2C_EV_IRQHandler+0x970>)
 800297c:	40c2      	lsrs	r2, r0
 800297e:	07d0      	lsls	r0, r2, #31
 8002980:	f57f ae0a 	bpl.w	8002598 <HAL_I2C_EV_IRQHandler+0x50c>
 8002984:	e790      	b.n	80028a8 <HAL_I2C_EV_IRQHandler+0x81c>
 8002986:	f442 6280 	orr.w	r2, r2, #1024	; 0x400
 800298a:	601a      	str	r2, [r3, #0]
 800298c:	e6ea      	b.n	8002764 <HAL_I2C_EV_IRQHandler+0x6d8>
 800298e:	9204      	str	r2, [sp, #16]
 8002990:	695a      	ldr	r2, [r3, #20]
 8002992:	9204      	str	r2, [sp, #16]
 8002994:	699a      	ldr	r2, [r3, #24]
 8002996:	9204      	str	r2, [sp, #16]
 8002998:	9a04      	ldr	r2, [sp, #16]
 800299a:	681a      	ldr	r2, [r3, #0]
 800299c:	f442 7200 	orr.w	r2, r2, #512	; 0x200
 80029a0:	601a      	str	r2, [r3, #0]
 80029a2:	e5f9      	b.n	8002598 <HAL_I2C_EV_IRQHandler+0x50c>
 80029a4:	2801      	cmp	r0, #1
 80029a6:	d184      	bne.n	80028b2 <HAL_I2C_EV_IRQHandler+0x826>
 80029a8:	681a      	ldr	r2, [r3, #0]
 80029aa:	f422 6280 	bic.w	r2, r2, #1024	; 0x400
 80029ae:	601a      	str	r2, [r3, #0]
 80029b0:	e6c0      	b.n	8002734 <HAL_I2C_EV_IRQHandler+0x6a8>
 80029b2:	2020      	movs	r0, #32
 80029b4:	6819      	ldr	r1, [r3, #0]
 80029b6:	6a65      	ldr	r5, [r4, #36]	; 0x24
 80029b8:	f421 6180 	bic.w	r1, r1, #1024	; 0x400
 80029bc:	6019      	str	r1, [r3, #0]
 80029be:	6859      	ldr	r1, [r3, #4]
 80029c0:	f421 61e0 	bic.w	r1, r1, #1792	; 0x700
 80029c4:	6059      	str	r1, [r3, #4]
 80029c6:	691b      	ldr	r3, [r3, #16]
 80029c8:	702b      	strb	r3, [r5, #0]
 80029ca:	8d63      	ldrh	r3, [r4, #42]	; 0x2a
 80029cc:	6a61      	ldr	r1, [r4, #36]	; 0x24
 80029ce:	3b01      	subs	r3, #1
 80029d0:	b29b      	uxth	r3, r3
 80029d2:	8563      	strh	r3, [r4, #42]	; 0x2a
 80029d4:	f884 003d 	strb.w	r0, [r4, #61]	; 0x3d
 80029d8:	f894 303e 	ldrb.w	r3, [r4, #62]	; 0x3e
 80029dc:	3101      	adds	r1, #1
 80029de:	2b40      	cmp	r3, #64	; 0x40
 80029e0:	6261      	str	r1, [r4, #36]	; 0x24
 80029e2:	f47f aee1 	bne.w	80027a8 <HAL_I2C_EV_IRQHandler+0x71c>
 80029e6:	f884 203e 	strb.w	r2, [r4, #62]	; 0x3e
 80029ea:	4620      	mov	r0, r4
 80029ec:	6322      	str	r2, [r4, #48]	; 0x30
 80029ee:	f7ff fa17 	bl	8001e20 <HAL_I2C_MemRxCpltCallback>
 80029f2:	f7ff bb7a 	b.w	80020ea <HAL_I2C_EV_IRQHandler+0x5e>
 80029f6:	bf00      	nop
 80029f8:	00010014 	.word	0x00010014
 80029fc:	80008081 	.word	0x80008081

08002a00 <HAL_I2C_ER_IRQHandler>:
 8002a00:	b5f0      	push	{r4, r5, r6, r7, lr}
 8002a02:	6803      	ldr	r3, [r0, #0]
 8002a04:	b083      	sub	sp, #12
 8002a06:	695c      	ldr	r4, [r3, #20]
 8002a08:	685a      	ldr	r2, [r3, #4]
 8002a0a:	f890 103e 	ldrb.w	r1, [r0, #62]	; 0x3e
 8002a0e:	05e6      	lsls	r6, r4, #23
 8002a10:	b2cd      	uxtb	r5, r1
 8002a12:	d533      	bpl.n	8002a7c <HAL_I2C_ER_IRQHandler+0x7c>
 8002a14:	05d1      	lsls	r1, r2, #23
 8002a16:	ea4f 2612 	mov.w	r6, r2, lsr #8
 8002a1a:	d52f      	bpl.n	8002a7c <HAL_I2C_ER_IRQHandler+0x7c>
 8002a1c:	f46f 7280 	mvn.w	r2, #256	; 0x100
 8002a20:	615a      	str	r2, [r3, #20]
 8002a22:	681a      	ldr	r2, [r3, #0]
 8002a24:	05a7      	lsls	r7, r4, #22
 8002a26:	f442 4200 	orr.w	r2, r2, #32768	; 0x8000
 8002a2a:	601a      	str	r2, [r3, #0]
 8002a2c:	d438      	bmi.n	8002aa0 <HAL_I2C_ER_IRQHandler+0xa0>
 8002a2e:	0567      	lsls	r7, r4, #21
 8002a30:	d56a      	bpl.n	8002b08 <HAL_I2C_ER_IRQHandler+0x108>
 8002a32:	2101      	movs	r1, #1
 8002a34:	8d42      	ldrh	r2, [r0, #42]	; 0x2a
 8002a36:	f890 603d 	ldrb.w	r6, [r0, #61]	; 0x3d
 8002a3a:	2d20      	cmp	r5, #32
 8002a3c:	6b07      	ldr	r7, [r0, #48]	; 0x30
 8002a3e:	b292      	uxth	r2, r2
 8002a40:	b2f6      	uxtb	r6, r6
 8002a42:	d03a      	beq.n	8002aba <HAL_I2C_ER_IRQHandler+0xba>
 8002a44:	f46f 6280 	mvn.w	r2, #1024	; 0x400
 8002a48:	2d10      	cmp	r5, #16
 8002a4a:	f041 0104 	orr.w	r1, r1, #4
 8002a4e:	615a      	str	r2, [r3, #20]
 8002a50:	d001      	beq.n	8002a56 <HAL_I2C_ER_IRQHandler+0x56>
 8002a52:	2d40      	cmp	r5, #64	; 0x40
 8002a54:	d103      	bne.n	8002a5e <HAL_I2C_ER_IRQHandler+0x5e>
 8002a56:	681a      	ldr	r2, [r3, #0]
 8002a58:	f442 7200 	orr.w	r2, r2, #512	; 0x200
 8002a5c:	601a      	str	r2, [r3, #0]
 8002a5e:	0525      	lsls	r5, r4, #20
 8002a60:	d504      	bpl.n	8002a6c <HAL_I2C_ER_IRQHandler+0x6c>
 8002a62:	f46f 6200 	mvn.w	r2, #2048	; 0x800
 8002a66:	f041 0108 	orr.w	r1, r1, #8
 8002a6a:	615a      	str	r2, [r3, #20]
 8002a6c:	6c03      	ldr	r3, [r0, #64]	; 0x40
 8002a6e:	4319      	orrs	r1, r3
 8002a70:	6401      	str	r1, [r0, #64]	; 0x40
 8002a72:	b003      	add	sp, #12
 8002a74:	e8bd 40f0 	ldmia.w	sp!, {r4, r5, r6, r7, lr}
 8002a78:	f7ff ba52 	b.w	8001f20 <I2C_ITError>
 8002a7c:	05a6      	lsls	r6, r4, #22
 8002a7e:	d503      	bpl.n	8002a88 <HAL_I2C_ER_IRQHandler+0x88>
 8002a80:	05d1      	lsls	r1, r2, #23
 8002a82:	ea4f 2612 	mov.w	r6, r2, lsr #8
 8002a86:	d416      	bmi.n	8002ab6 <HAL_I2C_ER_IRQHandler+0xb6>
 8002a88:	0566      	lsls	r6, r4, #21
 8002a8a:	f3c4 2180 	ubfx	r1, r4, #10, #1
 8002a8e:	d403      	bmi.n	8002a98 <HAL_I2C_ER_IRQHandler+0x98>
 8002a90:	0524      	lsls	r4, r4, #20
 8002a92:	d432      	bmi.n	8002afa <HAL_I2C_ER_IRQHandler+0xfa>
 8002a94:	b003      	add	sp, #12
 8002a96:	bdf0      	pop	{r4, r5, r6, r7, pc}
 8002a98:	05d7      	lsls	r7, r2, #23
 8002a9a:	d5fb      	bpl.n	8002a94 <HAL_I2C_ER_IRQHandler+0x94>
 8002a9c:	2100      	movs	r1, #0
 8002a9e:	e7c9      	b.n	8002a34 <HAL_I2C_ER_IRQHandler+0x34>
 8002aa0:	2103      	movs	r1, #3
 8002aa2:	f46f 7200 	mvn.w	r2, #512	; 0x200
 8002aa6:	0567      	lsls	r7, r4, #21
 8002aa8:	615a      	str	r2, [r3, #20]
 8002aaa:	d4c3      	bmi.n	8002a34 <HAL_I2C_ER_IRQHandler+0x34>
 8002aac:	0522      	lsls	r2, r4, #20
 8002aae:	d5dd      	bpl.n	8002a6c <HAL_I2C_ER_IRQHandler+0x6c>
 8002ab0:	07f6      	lsls	r6, r6, #31
 8002ab2:	d4d6      	bmi.n	8002a62 <HAL_I2C_ER_IRQHandler+0x62>
 8002ab4:	e7da      	b.n	8002a6c <HAL_I2C_ER_IRQHandler+0x6c>
 8002ab6:	2102      	movs	r1, #2
 8002ab8:	e7f3      	b.n	8002aa2 <HAL_I2C_ER_IRQHandler+0xa2>
 8002aba:	b9c2      	cbnz	r2, 8002aee <HAL_I2C_ER_IRQHandler+0xee>
 8002abc:	f006 02f7 	and.w	r2, r6, #247	; 0xf7
 8002ac0:	2a21      	cmp	r2, #33	; 0x21
 8002ac2:	d003      	beq.n	8002acc <HAL_I2C_ER_IRQHandler+0xcc>
 8002ac4:	2e28      	cmp	r6, #40	; 0x28
 8002ac6:	d112      	bne.n	8002aee <HAL_I2C_ER_IRQHandler+0xee>
 8002ac8:	2f21      	cmp	r7, #33	; 0x21
 8002aca:	d110      	bne.n	8002aee <HAL_I2C_ER_IRQHandler+0xee>
 8002acc:	f890 203d 	ldrb.w	r2, [r0, #61]	; 0x3d
 8002ad0:	6ac5      	ldr	r5, [r0, #44]	; 0x2c
 8002ad2:	b2d2      	uxtb	r2, r2
 8002ad4:	2d08      	cmp	r5, #8
 8002ad6:	d01c      	beq.n	8002b12 <HAL_I2C_ER_IRQHandler+0x112>
 8002ad8:	2d20      	cmp	r5, #32
 8002ada:	d01a      	beq.n	8002b12 <HAL_I2C_ER_IRQHandler+0x112>
 8002adc:	2a21      	cmp	r2, #33	; 0x21
 8002ade:	d034      	beq.n	8002b4a <HAL_I2C_ER_IRQHandler+0x14a>
 8002ae0:	f46f 6280 	mvn.w	r2, #1024	; 0x400
 8002ae4:	615a      	str	r2, [r3, #20]
 8002ae6:	0524      	lsls	r4, r4, #20
 8002ae8:	d50a      	bpl.n	8002b00 <HAL_I2C_ER_IRQHandler+0x100>
 8002aea:	6803      	ldr	r3, [r0, #0]
 8002aec:	e7b9      	b.n	8002a62 <HAL_I2C_ER_IRQHandler+0x62>
 8002aee:	f46f 6280 	mvn.w	r2, #1024	; 0x400
 8002af2:	f041 0104 	orr.w	r1, r1, #4
 8002af6:	615a      	str	r2, [r3, #20]
 8002af8:	e7b1      	b.n	8002a5e <HAL_I2C_ER_IRQHandler+0x5e>
 8002afa:	0a16      	lsrs	r6, r2, #8
 8002afc:	07f6      	lsls	r6, r6, #31
 8002afe:	d4b0      	bmi.n	8002a62 <HAL_I2C_ER_IRQHandler+0x62>
 8002b00:	2900      	cmp	r1, #0
 8002b02:	d1b3      	bne.n	8002a6c <HAL_I2C_ER_IRQHandler+0x6c>
 8002b04:	b003      	add	sp, #12
 8002b06:	bdf0      	pop	{r4, r5, r6, r7, pc}
 8002b08:	0525      	lsls	r5, r4, #20
 8002b0a:	f04f 0101 	mov.w	r1, #1
 8002b0e:	d4f5      	bmi.n	8002afc <HAL_I2C_ER_IRQHandler+0xfc>
 8002b10:	e7ac      	b.n	8002a6c <HAL_I2C_ER_IRQHandler+0x6c>
 8002b12:	2a28      	cmp	r2, #40	; 0x28
 8002b14:	d1e2      	bne.n	8002adc <HAL_I2C_ER_IRQHandler+0xdc>
 8002b16:	f46f 6780 	mvn.w	r7, #1024	; 0x400
 8002b1a:	2500      	movs	r5, #0
 8002b1c:	2620      	movs	r6, #32
 8002b1e:	4a19      	ldr	r2, [pc, #100]	; (8002b84 <HAL_I2C_ER_IRQHandler+0x184>)
 8002b20:	9101      	str	r1, [sp, #4]
 8002b22:	62c2      	str	r2, [r0, #44]	; 0x2c
 8002b24:	685a      	ldr	r2, [r3, #4]
 8002b26:	9000      	str	r0, [sp, #0]
 8002b28:	f422 62e0 	bic.w	r2, r2, #1792	; 0x700
 8002b2c:	605a      	str	r2, [r3, #4]
 8002b2e:	615f      	str	r7, [r3, #20]
 8002b30:	681a      	ldr	r2, [r3, #0]
 8002b32:	403a      	ands	r2, r7
 8002b34:	601a      	str	r2, [r3, #0]
 8002b36:	6305      	str	r5, [r0, #48]	; 0x30
 8002b38:	f880 603d 	strb.w	r6, [r0, #61]	; 0x3d
 8002b3c:	f880 503e 	strb.w	r5, [r0, #62]	; 0x3e
 8002b40:	f7ff f90e 	bl	8001d60 <HAL_I2C_ListenCpltCallback>
 8002b44:	e9dd 0100 	ldrd	r0, r1, [sp]
 8002b48:	e7cd      	b.n	8002ae6 <HAL_I2C_ER_IRQHandler+0xe6>
 8002b4a:	2720      	movs	r7, #32
 8002b4c:	2600      	movs	r6, #0
 8002b4e:	f46f 6580 	mvn.w	r5, #1024	; 0x400
 8002b52:	f8df c030 	ldr.w	ip, [pc, #48]	; 8002b84 <HAL_I2C_ER_IRQHandler+0x184>
 8002b56:	9101      	str	r1, [sp, #4]
 8002b58:	f8c0 c02c 	str.w	ip, [r0, #44]	; 0x2c
 8002b5c:	6302      	str	r2, [r0, #48]	; 0x30
 8002b5e:	f880 703d 	strb.w	r7, [r0, #61]	; 0x3d
 8002b62:	f880 603e 	strb.w	r6, [r0, #62]	; 0x3e
 8002b66:	685a      	ldr	r2, [r3, #4]
 8002b68:	9000      	str	r0, [sp, #0]
 8002b6a:	f422 62e0 	bic.w	r2, r2, #1792	; 0x700
 8002b6e:	605a      	str	r2, [r3, #4]
 8002b70:	615d      	str	r5, [r3, #20]
 8002b72:	681a      	ldr	r2, [r3, #0]
 8002b74:	402a      	ands	r2, r5
 8002b76:	601a      	str	r2, [r3, #0]
 8002b78:	f7ff f8ec 	bl	8001d54 <HAL_I2C_SlaveTxCpltCallback>
 8002b7c:	e9dd 0100 	ldrd	r0, r1, [sp]
 8002b80:	e7b1      	b.n	8002ae6 <HAL_I2C_ER_IRQHandler+0xe6>
 8002b82:	bf00      	nop
 8002b84:	ffff0000 	.word	0xffff0000

08002b88 <HAL_I2C_GetState>:
 8002b88:	f890 003d 	ldrb.w	r0, [r0, #61]	; 0x3d
 8002b8c:	4770      	bx	lr
 8002b8e:	bf00      	nop

08002b90 <HAL_PWR_DisableWakeUpPin>:
 8002b90:	f5b0 7f80 	cmp.w	r0, #256	; 0x100
 8002b94:	b510      	push	{r4, lr}
 8002b96:	4604      	mov	r4, r0
 8002b98:	d004      	beq.n	8002ba4 <HAL_PWR_DisableWakeUpPin+0x14>
 8002b9a:	f44f 71c8 	mov.w	r1, #400	; 0x190
 8002b9e:	4806      	ldr	r0, [pc, #24]	; (8002bb8 <HAL_PWR_DisableWakeUpPin+0x28>)
 8002ba0:	f7fd fcd8 	bl	8000554 <assert_failed>
 8002ba4:	fa94 f4a4 	rbit	r4, r4
 8002ba8:	fab4 f484 	clz	r4, r4
 8002bac:	2200      	movs	r2, #0
 8002bae:	4b03      	ldr	r3, [pc, #12]	; (8002bbc <HAL_PWR_DisableWakeUpPin+0x2c>)
 8002bb0:	4423      	add	r3, r4
 8002bb2:	009b      	lsls	r3, r3, #2
 8002bb4:	601a      	str	r2, [r3, #0]
 8002bb6:	bd10      	pop	{r4, pc}
 8002bb8:	08003c74 	.word	0x08003c74
 8002bbc:	10838020 	.word	0x10838020

08002bc0 <HAL_RCC_OscConfig>:
 8002bc0:	2800      	cmp	r0, #0
 8002bc2:	f000 8262 	beq.w	800308a <HAL_RCC_OscConfig+0x4ca>
 8002bc6:	e92d 41f0 	stmdb	sp!, {r4, r5, r6, r7, r8, lr}
 8002bca:	6803      	ldr	r3, [r0, #0]
 8002bcc:	4604      	mov	r4, r0
 8002bce:	b082      	sub	sp, #8
 8002bd0:	2b00      	cmp	r3, #0
 8002bd2:	d06d      	beq.n	8002cb0 <HAL_RCC_OscConfig+0xf0>
 8002bd4:	071e      	lsls	r6, r3, #28
 8002bd6:	f000 81e1 	beq.w	8002f9c <HAL_RCC_OscConfig+0x3dc>
 8002bda:	07dd      	lsls	r5, r3, #31
 8002bdc:	f140 80a0 	bpl.w	8002d20 <HAL_RCC_OscConfig+0x160>
 8002be0:	6863      	ldr	r3, [r4, #4]
 8002be2:	f433 3280 	bics.w	r2, r3, #65536	; 0x10000
 8002be6:	d003      	beq.n	8002bf0 <HAL_RCC_OscConfig+0x30>
 8002be8:	f5b3 2fa0 	cmp.w	r3, #327680	; 0x50000
 8002bec:	f040 81b1 	bne.w	8002f52 <HAL_RCC_OscConfig+0x392>
 8002bf0:	4aac      	ldr	r2, [pc, #688]	; (8002ea4 <HAL_RCC_OscConfig+0x2e4>)
 8002bf2:	6853      	ldr	r3, [r2, #4]
 8002bf4:	f003 030c 	and.w	r3, r3, #12
 8002bf8:	2b04      	cmp	r3, #4
 8002bfa:	f000 8088 	beq.w	8002d0e <HAL_RCC_OscConfig+0x14e>
 8002bfe:	6853      	ldr	r3, [r2, #4]
 8002c00:	f003 030c 	and.w	r3, r3, #12
 8002c04:	2b08      	cmp	r3, #8
 8002c06:	d07e      	beq.n	8002d06 <HAL_RCC_OscConfig+0x146>
 8002c08:	6863      	ldr	r3, [r4, #4]
 8002c0a:	f5b3 3f80 	cmp.w	r3, #65536	; 0x10000
 8002c0e:	f000 818d 	beq.w	8002f2c <HAL_RCC_OscConfig+0x36c>
 8002c12:	2b00      	cmp	r3, #0
 8002c14:	f000 81c9 	beq.w	8002faa <HAL_RCC_OscConfig+0x3ea>
 8002c18:	f5b3 2fa0 	cmp.w	r3, #327680	; 0x50000
 8002c1c:	f000 820f 	beq.w	800303e <HAL_RCC_OscConfig+0x47e>
 8002c20:	4ba0      	ldr	r3, [pc, #640]	; (8002ea4 <HAL_RCC_OscConfig+0x2e4>)
 8002c22:	681a      	ldr	r2, [r3, #0]
 8002c24:	f422 3280 	bic.w	r2, r2, #65536	; 0x10000
 8002c28:	601a      	str	r2, [r3, #0]
 8002c2a:	681a      	ldr	r2, [r3, #0]
 8002c2c:	f422 2280 	bic.w	r2, r2, #262144	; 0x40000
 8002c30:	601a      	str	r2, [r3, #0]
 8002c32:	e180      	b.n	8002f36 <HAL_RCC_OscConfig+0x376>
 8002c34:	4a9c      	ldr	r2, [pc, #624]	; (8002ea8 <HAL_RCC_OscConfig+0x2e8>)
 8002c36:	4e9b      	ldr	r6, [pc, #620]	; (8002ea4 <HAL_RCC_OscConfig+0x2e4>)
 8002c38:	6013      	str	r3, [r2, #0]
 8002c3a:	f7fe fb97 	bl	800136c <HAL_GetTick>
 8002c3e:	4605      	mov	r5, r0
 8002c40:	e005      	b.n	8002c4e <HAL_RCC_OscConfig+0x8e>
 8002c42:	f7fe fb93 	bl	800136c <HAL_GetTick>
 8002c46:	1b40      	subs	r0, r0, r5
 8002c48:	2802      	cmp	r0, #2
 8002c4a:	f200 81a3 	bhi.w	8002f94 <HAL_RCC_OscConfig+0x3d4>
 8002c4e:	6833      	ldr	r3, [r6, #0]
 8002c50:	0799      	lsls	r1, r3, #30
 8002c52:	d4f6      	bmi.n	8002c42 <HAL_RCC_OscConfig+0x82>
 8002c54:	6823      	ldr	r3, [r4, #0]
 8002c56:	071a      	lsls	r2, r3, #28
 8002c58:	d52a      	bpl.n	8002cb0 <HAL_RCC_OscConfig+0xf0>
 8002c5a:	69a3      	ldr	r3, [r4, #24]
 8002c5c:	2b01      	cmp	r3, #1
 8002c5e:	d905      	bls.n	8002c6c <HAL_RCC_OscConfig+0xac>
 8002c60:	f44f 71f1 	mov.w	r1, #482	; 0x1e2
 8002c64:	4891      	ldr	r0, [pc, #580]	; (8002eac <HAL_RCC_OscConfig+0x2ec>)
 8002c66:	f7fd fc75 	bl	8000554 <assert_failed>
 8002c6a:	69a3      	ldr	r3, [r4, #24]
 8002c6c:	2b00      	cmp	r3, #0
 8002c6e:	f000 8138 	beq.w	8002ee2 <HAL_RCC_OscConfig+0x322>
 8002c72:	2201      	movs	r2, #1
 8002c74:	4b8e      	ldr	r3, [pc, #568]	; (8002eb0 <HAL_RCC_OscConfig+0x2f0>)
 8002c76:	4e8b      	ldr	r6, [pc, #556]	; (8002ea4 <HAL_RCC_OscConfig+0x2e4>)
 8002c78:	601a      	str	r2, [r3, #0]
 8002c7a:	f7fe fb77 	bl	800136c <HAL_GetTick>
 8002c7e:	4605      	mov	r5, r0
 8002c80:	e005      	b.n	8002c8e <HAL_RCC_OscConfig+0xce>
 8002c82:	f7fe fb73 	bl	800136c <HAL_GetTick>
 8002c86:	1b40      	subs	r0, r0, r5
 8002c88:	2802      	cmp	r0, #2
 8002c8a:	f200 8183 	bhi.w	8002f94 <HAL_RCC_OscConfig+0x3d4>
 8002c8e:	6a73      	ldr	r3, [r6, #36]	; 0x24
 8002c90:	079b      	lsls	r3, r3, #30
 8002c92:	d5f6      	bpl.n	8002c82 <HAL_RCC_OscConfig+0xc2>
 8002c94:	4b87      	ldr	r3, [pc, #540]	; (8002eb4 <HAL_RCC_OscConfig+0x2f4>)
 8002c96:	4a88      	ldr	r2, [pc, #544]	; (8002eb8 <HAL_RCC_OscConfig+0x2f8>)
 8002c98:	681b      	ldr	r3, [r3, #0]
 8002c9a:	fba2 2303 	umull	r2, r3, r2, r3
 8002c9e:	0a5b      	lsrs	r3, r3, #9
 8002ca0:	9301      	str	r3, [sp, #4]
 8002ca2:	bf00      	nop
 8002ca4:	9b01      	ldr	r3, [sp, #4]
 8002ca6:	1e5a      	subs	r2, r3, #1
 8002ca8:	9201      	str	r2, [sp, #4]
 8002caa:	2b00      	cmp	r3, #0
 8002cac:	d1f9      	bne.n	8002ca2 <HAL_RCC_OscConfig+0xe2>
 8002cae:	6823      	ldr	r3, [r4, #0]
 8002cb0:	075d      	lsls	r5, r3, #29
 8002cb2:	f140 8084 	bpl.w	8002dbe <HAL_RCC_OscConfig+0x1fe>
 8002cb6:	68e3      	ldr	r3, [r4, #12]
 8002cb8:	2b01      	cmp	r3, #1
 8002cba:	d906      	bls.n	8002cca <HAL_RCC_OscConfig+0x10a>
 8002cbc:	2b05      	cmp	r3, #5
 8002cbe:	d004      	beq.n	8002cca <HAL_RCC_OscConfig+0x10a>
 8002cc0:	f240 2111 	movw	r1, #529	; 0x211
 8002cc4:	4879      	ldr	r0, [pc, #484]	; (8002eac <HAL_RCC_OscConfig+0x2ec>)
 8002cc6:	f7fd fc45 	bl	8000554 <assert_failed>
 8002cca:	4b76      	ldr	r3, [pc, #472]	; (8002ea4 <HAL_RCC_OscConfig+0x2e4>)
 8002ccc:	69da      	ldr	r2, [r3, #28]
 8002cce:	00d0      	lsls	r0, r2, #3
 8002cd0:	f140 8117 	bpl.w	8002f02 <HAL_RCC_OscConfig+0x342>
 8002cd4:	2500      	movs	r5, #0
 8002cd6:	4b79      	ldr	r3, [pc, #484]	; (8002ebc <HAL_RCC_OscConfig+0x2fc>)
 8002cd8:	681a      	ldr	r2, [r3, #0]
 8002cda:	05d1      	lsls	r1, r2, #23
 8002cdc:	f140 8149 	bpl.w	8002f72 <HAL_RCC_OscConfig+0x3b2>
 8002ce0:	68e3      	ldr	r3, [r4, #12]
 8002ce2:	2b01      	cmp	r3, #1
 8002ce4:	d050      	beq.n	8002d88 <HAL_RCC_OscConfig+0x1c8>
 8002ce6:	2b00      	cmp	r3, #0
 8002ce8:	f000 8179 	beq.w	8002fde <HAL_RCC_OscConfig+0x41e>
 8002cec:	2b05      	cmp	r3, #5
 8002cee:	4b6d      	ldr	r3, [pc, #436]	; (8002ea4 <HAL_RCC_OscConfig+0x2e4>)
 8002cf0:	6a1a      	ldr	r2, [r3, #32]
 8002cf2:	f000 81b1 	beq.w	8003058 <HAL_RCC_OscConfig+0x498>
 8002cf6:	f022 0201 	bic.w	r2, r2, #1
 8002cfa:	621a      	str	r2, [r3, #32]
 8002cfc:	6a1a      	ldr	r2, [r3, #32]
 8002cfe:	f022 0204 	bic.w	r2, r2, #4
 8002d02:	621a      	str	r2, [r3, #32]
 8002d04:	e045      	b.n	8002d92 <HAL_RCC_OscConfig+0x1d2>
 8002d06:	6853      	ldr	r3, [r2, #4]
 8002d08:	03d8      	lsls	r0, r3, #15
 8002d0a:	f57f af7d 	bpl.w	8002c08 <HAL_RCC_OscConfig+0x48>
 8002d0e:	4b65      	ldr	r3, [pc, #404]	; (8002ea4 <HAL_RCC_OscConfig+0x2e4>)
 8002d10:	681b      	ldr	r3, [r3, #0]
 8002d12:	0399      	lsls	r1, r3, #14
 8002d14:	d503      	bpl.n	8002d1e <HAL_RCC_OscConfig+0x15e>
 8002d16:	6863      	ldr	r3, [r4, #4]
 8002d18:	2b00      	cmp	r3, #0
 8002d1a:	f000 80be 	beq.w	8002e9a <HAL_RCC_OscConfig+0x2da>
 8002d1e:	6823      	ldr	r3, [r4, #0]
 8002d20:	079f      	lsls	r7, r3, #30
 8002d22:	d598      	bpl.n	8002c56 <HAL_RCC_OscConfig+0x96>
 8002d24:	6923      	ldr	r3, [r4, #16]
 8002d26:	2b01      	cmp	r3, #1
 8002d28:	f200 80cc 	bhi.w	8002ec4 <HAL_RCC_OscConfig+0x304>
 8002d2c:	6963      	ldr	r3, [r4, #20]
 8002d2e:	2b1f      	cmp	r3, #31
 8002d30:	f200 80d1 	bhi.w	8002ed6 <HAL_RCC_OscConfig+0x316>
 8002d34:	4b5b      	ldr	r3, [pc, #364]	; (8002ea4 <HAL_RCC_OscConfig+0x2e4>)
 8002d36:	685a      	ldr	r2, [r3, #4]
 8002d38:	f012 0f0c 	tst.w	r2, #12
 8002d3c:	f000 80a6 	beq.w	8002e8c <HAL_RCC_OscConfig+0x2cc>
 8002d40:	685a      	ldr	r2, [r3, #4]
 8002d42:	f002 020c 	and.w	r2, r2, #12
 8002d46:	2a08      	cmp	r2, #8
 8002d48:	f000 809c 	beq.w	8002e84 <HAL_RCC_OscConfig+0x2c4>
 8002d4c:	6923      	ldr	r3, [r4, #16]
 8002d4e:	2b00      	cmp	r3, #0
 8002d50:	f43f af70 	beq.w	8002c34 <HAL_RCC_OscConfig+0x74>
 8002d54:	2201      	movs	r2, #1
 8002d56:	4b54      	ldr	r3, [pc, #336]	; (8002ea8 <HAL_RCC_OscConfig+0x2e8>)
 8002d58:	4e52      	ldr	r6, [pc, #328]	; (8002ea4 <HAL_RCC_OscConfig+0x2e4>)
 8002d5a:	601a      	str	r2, [r3, #0]
 8002d5c:	f7fe fb06 	bl	800136c <HAL_GetTick>
 8002d60:	4605      	mov	r5, r0
 8002d62:	e005      	b.n	8002d70 <HAL_RCC_OscConfig+0x1b0>
 8002d64:	f7fe fb02 	bl	800136c <HAL_GetTick>
 8002d68:	1b40      	subs	r0, r0, r5
 8002d6a:	2802      	cmp	r0, #2
 8002d6c:	f200 8112 	bhi.w	8002f94 <HAL_RCC_OscConfig+0x3d4>
 8002d70:	6833      	ldr	r3, [r6, #0]
 8002d72:	0798      	lsls	r0, r3, #30
 8002d74:	d5f6      	bpl.n	8002d64 <HAL_RCC_OscConfig+0x1a4>
 8002d76:	6833      	ldr	r3, [r6, #0]
 8002d78:	6962      	ldr	r2, [r4, #20]
 8002d7a:	f023 03f8 	bic.w	r3, r3, #248	; 0xf8
 8002d7e:	ea43 03c2 	orr.w	r3, r3, r2, lsl #3
 8002d82:	6033      	str	r3, [r6, #0]
 8002d84:	6823      	ldr	r3, [r4, #0]
 8002d86:	e766      	b.n	8002c56 <HAL_RCC_OscConfig+0x96>
 8002d88:	4a46      	ldr	r2, [pc, #280]	; (8002ea4 <HAL_RCC_OscConfig+0x2e4>)
 8002d8a:	6a13      	ldr	r3, [r2, #32]
 8002d8c:	f043 0301 	orr.w	r3, r3, #1
 8002d90:	6213      	str	r3, [r2, #32]
 8002d92:	f7fe faeb 	bl	800136c <HAL_GetTick>
 8002d96:	f241 3888 	movw	r8, #5000	; 0x1388
 8002d9a:	4606      	mov	r6, r0
 8002d9c:	4f41      	ldr	r7, [pc, #260]	; (8002ea4 <HAL_RCC_OscConfig+0x2e4>)
 8002d9e:	e005      	b.n	8002dac <HAL_RCC_OscConfig+0x1ec>
 8002da0:	f7fe fae4 	bl	800136c <HAL_GetTick>
 8002da4:	1b80      	subs	r0, r0, r6
 8002da6:	4540      	cmp	r0, r8
 8002da8:	f200 80f4 	bhi.w	8002f94 <HAL_RCC_OscConfig+0x3d4>
 8002dac:	6a3b      	ldr	r3, [r7, #32]
 8002dae:	079b      	lsls	r3, r3, #30
 8002db0:	d5f6      	bpl.n	8002da0 <HAL_RCC_OscConfig+0x1e0>
 8002db2:	b125      	cbz	r5, 8002dbe <HAL_RCC_OscConfig+0x1fe>
 8002db4:	4a3b      	ldr	r2, [pc, #236]	; (8002ea4 <HAL_RCC_OscConfig+0x2e4>)
 8002db6:	69d3      	ldr	r3, [r2, #28]
 8002db8:	f023 5380 	bic.w	r3, r3, #268435456	; 0x10000000
 8002dbc:	61d3      	str	r3, [r2, #28]
 8002dbe:	69e0      	ldr	r0, [r4, #28]
 8002dc0:	2802      	cmp	r0, #2
 8002dc2:	f200 80a9 	bhi.w	8002f18 <HAL_RCC_OscConfig+0x358>
 8002dc6:	2800      	cmp	r0, #0
 8002dc8:	d058      	beq.n	8002e7c <HAL_RCC_OscConfig+0x2bc>
 8002dca:	4b36      	ldr	r3, [pc, #216]	; (8002ea4 <HAL_RCC_OscConfig+0x2e4>)
 8002dcc:	685a      	ldr	r2, [r3, #4]
 8002dce:	f002 020c 	and.w	r2, r2, #12
 8002dd2:	2a08      	cmp	r2, #8
 8002dd4:	f000 8122 	beq.w	800301c <HAL_RCC_OscConfig+0x45c>
 8002dd8:	2802      	cmp	r0, #2
 8002dda:	f040 8145 	bne.w	8003068 <HAL_RCC_OscConfig+0x4a8>
 8002dde:	6a23      	ldr	r3, [r4, #32]
 8002de0:	f433 3380 	bics.w	r3, r3, #65536	; 0x10000
 8002de4:	d004      	beq.n	8002df0 <HAL_RCC_OscConfig+0x230>
 8002de6:	f44f 712e 	mov.w	r1, #696	; 0x2b8
 8002dea:	4830      	ldr	r0, [pc, #192]	; (8002eac <HAL_RCC_OscConfig+0x2ec>)
 8002dec:	f7fd fbb2 	bl	8000554 <assert_failed>
 8002df0:	6a63      	ldr	r3, [r4, #36]	; 0x24
 8002df2:	f433 2240 	bics.w	r2, r3, #786432	; 0xc0000
 8002df6:	f423 2180 	bic.w	r1, r3, #262144	; 0x40000
 8002dfa:	d010      	beq.n	8002e1e <HAL_RCC_OscConfig+0x25e>
 8002dfc:	f5b2 1f80 	cmp.w	r2, #1048576	; 0x100000
 8002e00:	d00d      	beq.n	8002e1e <HAL_RCC_OscConfig+0x25e>
 8002e02:	f5b2 1f00 	cmp.w	r2, #2097152	; 0x200000
 8002e06:	d00a      	beq.n	8002e1e <HAL_RCC_OscConfig+0x25e>
 8002e08:	f5b1 1f40 	cmp.w	r1, #3145728	; 0x300000
 8002e0c:	d007      	beq.n	8002e1e <HAL_RCC_OscConfig+0x25e>
 8002e0e:	f5b3 1f60 	cmp.w	r3, #3670016	; 0x380000
 8002e12:	d004      	beq.n	8002e1e <HAL_RCC_OscConfig+0x25e>
 8002e14:	f240 21b9 	movw	r1, #697	; 0x2b9
 8002e18:	4824      	ldr	r0, [pc, #144]	; (8002eac <HAL_RCC_OscConfig+0x2ec>)
 8002e1a:	f7fd fb9b 	bl	8000554 <assert_failed>
 8002e1e:	2200      	movs	r2, #0
 8002e20:	4b27      	ldr	r3, [pc, #156]	; (8002ec0 <HAL_RCC_OscConfig+0x300>)
 8002e22:	4e20      	ldr	r6, [pc, #128]	; (8002ea4 <HAL_RCC_OscConfig+0x2e4>)
 8002e24:	601a      	str	r2, [r3, #0]
 8002e26:	f7fe faa1 	bl	800136c <HAL_GetTick>
 8002e2a:	4605      	mov	r5, r0
 8002e2c:	e005      	b.n	8002e3a <HAL_RCC_OscConfig+0x27a>
 8002e2e:	f7fe fa9d 	bl	800136c <HAL_GetTick>
 8002e32:	1b40      	subs	r0, r0, r5
 8002e34:	2802      	cmp	r0, #2
 8002e36:	f200 80ad 	bhi.w	8002f94 <HAL_RCC_OscConfig+0x3d4>
 8002e3a:	6833      	ldr	r3, [r6, #0]
 8002e3c:	0199      	lsls	r1, r3, #6
 8002e3e:	d4f6      	bmi.n	8002e2e <HAL_RCC_OscConfig+0x26e>
 8002e40:	6a22      	ldr	r2, [r4, #32]
 8002e42:	f5b2 3f80 	cmp.w	r2, #65536	; 0x10000
 8002e46:	f000 8122 	beq.w	800308e <HAL_RCC_OscConfig+0x4ce>
 8002e4a:	2001      	movs	r0, #1
 8002e4c:	4d15      	ldr	r5, [pc, #84]	; (8002ea4 <HAL_RCC_OscConfig+0x2e4>)
 8002e4e:	6a64      	ldr	r4, [r4, #36]	; 0x24
 8002e50:	686b      	ldr	r3, [r5, #4]
 8002e52:	491b      	ldr	r1, [pc, #108]	; (8002ec0 <HAL_RCC_OscConfig+0x300>)
 8002e54:	f423 1374 	bic.w	r3, r3, #3997696	; 0x3d0000
 8002e58:	4323      	orrs	r3, r4
 8002e5a:	4313      	orrs	r3, r2
 8002e5c:	606b      	str	r3, [r5, #4]
 8002e5e:	6008      	str	r0, [r1, #0]
 8002e60:	f7fe fa84 	bl	800136c <HAL_GetTick>
 8002e64:	462c      	mov	r4, r5
 8002e66:	4605      	mov	r5, r0
 8002e68:	e005      	b.n	8002e76 <HAL_RCC_OscConfig+0x2b6>
 8002e6a:	f7fe fa7f 	bl	800136c <HAL_GetTick>
 8002e6e:	1b40      	subs	r0, r0, r5
 8002e70:	2802      	cmp	r0, #2
 8002e72:	f200 808f 	bhi.w	8002f94 <HAL_RCC_OscConfig+0x3d4>
 8002e76:	6823      	ldr	r3, [r4, #0]
 8002e78:	019a      	lsls	r2, r3, #6
 8002e7a:	d5f6      	bpl.n	8002e6a <HAL_RCC_OscConfig+0x2aa>
 8002e7c:	2000      	movs	r0, #0
 8002e7e:	b002      	add	sp, #8
 8002e80:	e8bd 81f0 	ldmia.w	sp!, {r4, r5, r6, r7, r8, pc}
 8002e84:	685b      	ldr	r3, [r3, #4]
 8002e86:	03de      	lsls	r6, r3, #15
 8002e88:	f53f af60 	bmi.w	8002d4c <HAL_RCC_OscConfig+0x18c>
 8002e8c:	4b05      	ldr	r3, [pc, #20]	; (8002ea4 <HAL_RCC_OscConfig+0x2e4>)
 8002e8e:	681b      	ldr	r3, [r3, #0]
 8002e90:	079d      	lsls	r5, r3, #30
 8002e92:	d564      	bpl.n	8002f5e <HAL_RCC_OscConfig+0x39e>
 8002e94:	6923      	ldr	r3, [r4, #16]
 8002e96:	2b01      	cmp	r3, #1
 8002e98:	d061      	beq.n	8002f5e <HAL_RCC_OscConfig+0x39e>
 8002e9a:	2001      	movs	r0, #1
 8002e9c:	b002      	add	sp, #8
 8002e9e:	e8bd 81f0 	ldmia.w	sp!, {r4, r5, r6, r7, r8, pc}
 8002ea2:	bf00      	nop
 8002ea4:	40021000 	.word	0x40021000
 8002ea8:	42420000 	.word	0x42420000
 8002eac:	08003cac 	.word	0x08003cac
 8002eb0:	42420480 	.word	0x42420480
 8002eb4:	20000000 	.word	0x20000000
 8002eb8:	10624dd3 	.word	0x10624dd3
 8002ebc:	40007000 	.word	0x40007000
 8002ec0:	42420060 	.word	0x42420060
 8002ec4:	f240 11a1 	movw	r1, #417	; 0x1a1
 8002ec8:	487a      	ldr	r0, [pc, #488]	; (80030b4 <HAL_RCC_OscConfig+0x4f4>)
 8002eca:	f7fd fb43 	bl	8000554 <assert_failed>
 8002ece:	6963      	ldr	r3, [r4, #20]
 8002ed0:	2b1f      	cmp	r3, #31
 8002ed2:	f67f af2f 	bls.w	8002d34 <HAL_RCC_OscConfig+0x174>
 8002ed6:	f44f 71d1 	mov.w	r1, #418	; 0x1a2
 8002eda:	4876      	ldr	r0, [pc, #472]	; (80030b4 <HAL_RCC_OscConfig+0x4f4>)
 8002edc:	f7fd fb3a 	bl	8000554 <assert_failed>
 8002ee0:	e728      	b.n	8002d34 <HAL_RCC_OscConfig+0x174>
 8002ee2:	4a75      	ldr	r2, [pc, #468]	; (80030b8 <HAL_RCC_OscConfig+0x4f8>)
 8002ee4:	4e75      	ldr	r6, [pc, #468]	; (80030bc <HAL_RCC_OscConfig+0x4fc>)
 8002ee6:	6013      	str	r3, [r2, #0]
 8002ee8:	f7fe fa40 	bl	800136c <HAL_GetTick>
 8002eec:	4605      	mov	r5, r0
 8002eee:	e004      	b.n	8002efa <HAL_RCC_OscConfig+0x33a>
 8002ef0:	f7fe fa3c 	bl	800136c <HAL_GetTick>
 8002ef4:	1b40      	subs	r0, r0, r5
 8002ef6:	2802      	cmp	r0, #2
 8002ef8:	d84c      	bhi.n	8002f94 <HAL_RCC_OscConfig+0x3d4>
 8002efa:	6a73      	ldr	r3, [r6, #36]	; 0x24
 8002efc:	079f      	lsls	r7, r3, #30
 8002efe:	d4f7      	bmi.n	8002ef0 <HAL_RCC_OscConfig+0x330>
 8002f00:	e6d5      	b.n	8002cae <HAL_RCC_OscConfig+0xee>
 8002f02:	69da      	ldr	r2, [r3, #28]
 8002f04:	2501      	movs	r5, #1
 8002f06:	f042 5280 	orr.w	r2, r2, #268435456	; 0x10000000
 8002f0a:	61da      	str	r2, [r3, #28]
 8002f0c:	69db      	ldr	r3, [r3, #28]
 8002f0e:	f003 5380 	and.w	r3, r3, #268435456	; 0x10000000
 8002f12:	9300      	str	r3, [sp, #0]
 8002f14:	9b00      	ldr	r3, [sp, #0]
 8002f16:	e6de      	b.n	8002cd6 <HAL_RCC_OscConfig+0x116>
 8002f18:	4866      	ldr	r0, [pc, #408]	; (80030b4 <HAL_RCC_OscConfig+0x4f4>)
 8002f1a:	f240 21af 	movw	r1, #687	; 0x2af
 8002f1e:	f7fd fb19 	bl	8000554 <assert_failed>
 8002f22:	69e0      	ldr	r0, [r4, #28]
 8002f24:	2800      	cmp	r0, #0
 8002f26:	f47f af50 	bne.w	8002dca <HAL_RCC_OscConfig+0x20a>
 8002f2a:	e7a7      	b.n	8002e7c <HAL_RCC_OscConfig+0x2bc>
 8002f2c:	4a63      	ldr	r2, [pc, #396]	; (80030bc <HAL_RCC_OscConfig+0x4fc>)
 8002f2e:	6813      	ldr	r3, [r2, #0]
 8002f30:	f443 3380 	orr.w	r3, r3, #65536	; 0x10000
 8002f34:	6013      	str	r3, [r2, #0]
 8002f36:	f7fe fa19 	bl	800136c <HAL_GetTick>
 8002f3a:	4e60      	ldr	r6, [pc, #384]	; (80030bc <HAL_RCC_OscConfig+0x4fc>)
 8002f3c:	4605      	mov	r5, r0
 8002f3e:	e004      	b.n	8002f4a <HAL_RCC_OscConfig+0x38a>
 8002f40:	f7fe fa14 	bl	800136c <HAL_GetTick>
 8002f44:	1b40      	subs	r0, r0, r5
 8002f46:	2864      	cmp	r0, #100	; 0x64
 8002f48:	d824      	bhi.n	8002f94 <HAL_RCC_OscConfig+0x3d4>
 8002f4a:	6833      	ldr	r3, [r6, #0]
 8002f4c:	039a      	lsls	r2, r3, #14
 8002f4e:	d5f7      	bpl.n	8002f40 <HAL_RCC_OscConfig+0x380>
 8002f50:	e6e5      	b.n	8002d1e <HAL_RCC_OscConfig+0x15e>
 8002f52:	f240 116d 	movw	r1, #365	; 0x16d
 8002f56:	4857      	ldr	r0, [pc, #348]	; (80030b4 <HAL_RCC_OscConfig+0x4f4>)
 8002f58:	f7fd fafc 	bl	8000554 <assert_failed>
 8002f5c:	e648      	b.n	8002bf0 <HAL_RCC_OscConfig+0x30>
 8002f5e:	4a57      	ldr	r2, [pc, #348]	; (80030bc <HAL_RCC_OscConfig+0x4fc>)
 8002f60:	6961      	ldr	r1, [r4, #20]
 8002f62:	6813      	ldr	r3, [r2, #0]
 8002f64:	f023 03f8 	bic.w	r3, r3, #248	; 0xf8
 8002f68:	ea43 03c1 	orr.w	r3, r3, r1, lsl #3
 8002f6c:	6013      	str	r3, [r2, #0]
 8002f6e:	6823      	ldr	r3, [r4, #0]
 8002f70:	e671      	b.n	8002c56 <HAL_RCC_OscConfig+0x96>
 8002f72:	681a      	ldr	r2, [r3, #0]
 8002f74:	461f      	mov	r7, r3
 8002f76:	f442 7280 	orr.w	r2, r2, #256	; 0x100
 8002f7a:	601a      	str	r2, [r3, #0]
 8002f7c:	f7fe f9f6 	bl	800136c <HAL_GetTick>
 8002f80:	4606      	mov	r6, r0
 8002f82:	683b      	ldr	r3, [r7, #0]
 8002f84:	05da      	lsls	r2, r3, #23
 8002f86:	f53f aeab 	bmi.w	8002ce0 <HAL_RCC_OscConfig+0x120>
 8002f8a:	f7fe f9ef 	bl	800136c <HAL_GetTick>
 8002f8e:	1b80      	subs	r0, r0, r6
 8002f90:	2864      	cmp	r0, #100	; 0x64
 8002f92:	d9f6      	bls.n	8002f82 <HAL_RCC_OscConfig+0x3c2>
 8002f94:	2003      	movs	r0, #3
 8002f96:	b002      	add	sp, #8
 8002f98:	e8bd 81f0 	ldmia.w	sp!, {r4, r5, r6, r7, r8, pc}
 8002f9c:	f240 1167 	movw	r1, #359	; 0x167
 8002fa0:	4844      	ldr	r0, [pc, #272]	; (80030b4 <HAL_RCC_OscConfig+0x4f4>)
 8002fa2:	f7fd fad7 	bl	8000554 <assert_failed>
 8002fa6:	6823      	ldr	r3, [r4, #0]
 8002fa8:	e617      	b.n	8002bda <HAL_RCC_OscConfig+0x1a>
 8002faa:	f103 4380 	add.w	r3, r3, #1073741824	; 0x40000000
 8002fae:	f503 3304 	add.w	r3, r3, #135168	; 0x21000
 8002fb2:	681a      	ldr	r2, [r3, #0]
 8002fb4:	461e      	mov	r6, r3
 8002fb6:	f422 3280 	bic.w	r2, r2, #65536	; 0x10000
 8002fba:	601a      	str	r2, [r3, #0]
 8002fbc:	681a      	ldr	r2, [r3, #0]
 8002fbe:	f422 2280 	bic.w	r2, r2, #262144	; 0x40000
 8002fc2:	601a      	str	r2, [r3, #0]
 8002fc4:	f7fe f9d2 	bl	800136c <HAL_GetTick>
 8002fc8:	4605      	mov	r5, r0
 8002fca:	e004      	b.n	8002fd6 <HAL_RCC_OscConfig+0x416>
 8002fcc:	f7fe f9ce 	bl	800136c <HAL_GetTick>
 8002fd0:	1b40      	subs	r0, r0, r5
 8002fd2:	2864      	cmp	r0, #100	; 0x64
 8002fd4:	d8de      	bhi.n	8002f94 <HAL_RCC_OscConfig+0x3d4>
 8002fd6:	6833      	ldr	r3, [r6, #0]
 8002fd8:	039b      	lsls	r3, r3, #14
 8002fda:	d4f7      	bmi.n	8002fcc <HAL_RCC_OscConfig+0x40c>
 8002fdc:	e69f      	b.n	8002d1e <HAL_RCC_OscConfig+0x15e>
 8002fde:	f103 4380 	add.w	r3, r3, #1073741824	; 0x40000000
 8002fe2:	f503 3304 	add.w	r3, r3, #135168	; 0x21000
 8002fe6:	6a1a      	ldr	r2, [r3, #32]
 8002fe8:	461f      	mov	r7, r3
 8002fea:	f022 0201 	bic.w	r2, r2, #1
 8002fee:	621a      	str	r2, [r3, #32]
 8002ff0:	6a1a      	ldr	r2, [r3, #32]
 8002ff2:	f241 3888 	movw	r8, #5000	; 0x1388
 8002ff6:	f022 0204 	bic.w	r2, r2, #4
 8002ffa:	621a      	str	r2, [r3, #32]
 8002ffc:	f7fe f9b6 	bl	800136c <HAL_GetTick>
 8003000:	4606      	mov	r6, r0
 8003002:	e004      	b.n	800300e <HAL_RCC_OscConfig+0x44e>
 8003004:	f7fe f9b2 	bl	800136c <HAL_GetTick>
 8003008:	1b80      	subs	r0, r0, r6
 800300a:	4540      	cmp	r0, r8
 800300c:	d8c2      	bhi.n	8002f94 <HAL_RCC_OscConfig+0x3d4>
 800300e:	6a3b      	ldr	r3, [r7, #32]
 8003010:	0798      	lsls	r0, r3, #30
 8003012:	d4f7      	bmi.n	8003004 <HAL_RCC_OscConfig+0x444>
 8003014:	2d00      	cmp	r5, #0
 8003016:	f43f aed2 	beq.w	8002dbe <HAL_RCC_OscConfig+0x1fe>
 800301a:	e6cb      	b.n	8002db4 <HAL_RCC_OscConfig+0x1f4>
 800301c:	2801      	cmp	r0, #1
 800301e:	f43f af2e 	beq.w	8002e7e <HAL_RCC_OscConfig+0x2be>
 8003022:	685b      	ldr	r3, [r3, #4]
 8003024:	6a22      	ldr	r2, [r4, #32]
 8003026:	f403 3180 	and.w	r1, r3, #65536	; 0x10000
 800302a:	4291      	cmp	r1, r2
 800302c:	f47f af35 	bne.w	8002e9a <HAL_RCC_OscConfig+0x2da>
 8003030:	6a60      	ldr	r0, [r4, #36]	; 0x24
 8003032:	f403 1370 	and.w	r3, r3, #3932160	; 0x3c0000
 8003036:	1a18      	subs	r0, r3, r0
 8003038:	bf18      	it	ne
 800303a:	2001      	movne	r0, #1
 800303c:	e71f      	b.n	8002e7e <HAL_RCC_OscConfig+0x2be>
 800303e:	f103 4380 	add.w	r3, r3, #1073741824	; 0x40000000
 8003042:	f5a3 333c 	sub.w	r3, r3, #192512	; 0x2f000
 8003046:	681a      	ldr	r2, [r3, #0]
 8003048:	f442 2280 	orr.w	r2, r2, #262144	; 0x40000
 800304c:	601a      	str	r2, [r3, #0]
 800304e:	681a      	ldr	r2, [r3, #0]
 8003050:	f442 3280 	orr.w	r2, r2, #65536	; 0x10000
 8003054:	601a      	str	r2, [r3, #0]
 8003056:	e76e      	b.n	8002f36 <HAL_RCC_OscConfig+0x376>
 8003058:	f042 0204 	orr.w	r2, r2, #4
 800305c:	621a      	str	r2, [r3, #32]
 800305e:	6a1a      	ldr	r2, [r3, #32]
 8003060:	f042 0201 	orr.w	r2, r2, #1
 8003064:	621a      	str	r2, [r3, #32]
 8003066:	e694      	b.n	8002d92 <HAL_RCC_OscConfig+0x1d2>
 8003068:	2100      	movs	r1, #0
 800306a:	4a15      	ldr	r2, [pc, #84]	; (80030c0 <HAL_RCC_OscConfig+0x500>)
 800306c:	461c      	mov	r4, r3
 800306e:	6011      	str	r1, [r2, #0]
 8003070:	f7fe f97c 	bl	800136c <HAL_GetTick>
 8003074:	4605      	mov	r5, r0
 8003076:	e004      	b.n	8003082 <HAL_RCC_OscConfig+0x4c2>
 8003078:	f7fe f978 	bl	800136c <HAL_GetTick>
 800307c:	1b40      	subs	r0, r0, r5
 800307e:	2802      	cmp	r0, #2
 8003080:	d888      	bhi.n	8002f94 <HAL_RCC_OscConfig+0x3d4>
 8003082:	6823      	ldr	r3, [r4, #0]
 8003084:	019b      	lsls	r3, r3, #6
 8003086:	d4f7      	bmi.n	8003078 <HAL_RCC_OscConfig+0x4b8>
 8003088:	e6f8      	b.n	8002e7c <HAL_RCC_OscConfig+0x2bc>
 800308a:	2001      	movs	r0, #1
 800308c:	4770      	bx	lr
 800308e:	68a1      	ldr	r1, [r4, #8]
 8003090:	f431 3300 	bics.w	r3, r1, #131072	; 0x20000
 8003094:	d006      	beq.n	80030a4 <HAL_RCC_OscConfig+0x4e4>
 8003096:	f240 21cf 	movw	r1, #719	; 0x2cf
 800309a:	4806      	ldr	r0, [pc, #24]	; (80030b4 <HAL_RCC_OscConfig+0x4f4>)
 800309c:	f7fd fa5a 	bl	8000554 <assert_failed>
 80030a0:	68a1      	ldr	r1, [r4, #8]
 80030a2:	6a22      	ldr	r2, [r4, #32]
 80030a4:	4805      	ldr	r0, [pc, #20]	; (80030bc <HAL_RCC_OscConfig+0x4fc>)
 80030a6:	6843      	ldr	r3, [r0, #4]
 80030a8:	f423 3300 	bic.w	r3, r3, #131072	; 0x20000
 80030ac:	430b      	orrs	r3, r1
 80030ae:	6043      	str	r3, [r0, #4]
 80030b0:	e6cb      	b.n	8002e4a <HAL_RCC_OscConfig+0x28a>
 80030b2:	bf00      	nop
 80030b4:	08003cac 	.word	0x08003cac
 80030b8:	42420480 	.word	0x42420480
 80030bc:	40021000 	.word	0x40021000
 80030c0:	42420060 	.word	0x42420060

080030c4 <HAL_RCC_ClockConfig>:
 80030c4:	2800      	cmp	r0, #0
 80030c6:	f000 8104 	beq.w	80032d2 <HAL_RCC_ClockConfig+0x20e>
 80030ca:	e92d 41f0 	stmdb	sp!, {r4, r5, r6, r7, r8, lr}
 80030ce:	6803      	ldr	r3, [r0, #0]
 80030d0:	4604      	mov	r4, r0
 80030d2:	071e      	lsls	r6, r3, #28
 80030d4:	460d      	mov	r5, r1
 80030d6:	b086      	sub	sp, #24
 80030d8:	f000 80de 	beq.w	8003298 <HAL_RCC_ClockConfig+0x1d4>
 80030dc:	2d02      	cmp	r5, #2
 80030de:	f200 80d5 	bhi.w	800328c <HAL_RCC_ClockConfig+0x1c8>
 80030e2:	4a85      	ldr	r2, [pc, #532]	; (80032f8 <HAL_RCC_ClockConfig+0x234>)
 80030e4:	6813      	ldr	r3, [r2, #0]
 80030e6:	f003 0307 	and.w	r3, r3, #7
 80030ea:	42ab      	cmp	r3, r5
 80030ec:	d20d      	bcs.n	800310a <HAL_RCC_ClockConfig+0x46>
 80030ee:	6813      	ldr	r3, [r2, #0]
 80030f0:	f023 0307 	bic.w	r3, r3, #7
 80030f4:	432b      	orrs	r3, r5
 80030f6:	6013      	str	r3, [r2, #0]
 80030f8:	6813      	ldr	r3, [r2, #0]
 80030fa:	f003 0307 	and.w	r3, r3, #7
 80030fe:	42ab      	cmp	r3, r5
 8003100:	d003      	beq.n	800310a <HAL_RCC_ClockConfig+0x46>
 8003102:	2001      	movs	r0, #1
 8003104:	b006      	add	sp, #24
 8003106:	e8bd 81f0 	ldmia.w	sp!, {r4, r5, r6, r7, r8, pc}
 800310a:	6823      	ldr	r3, [r4, #0]
 800310c:	0798      	lsls	r0, r3, #30
 800310e:	d52c      	bpl.n	800316a <HAL_RCC_ClockConfig+0xa6>
 8003110:	0759      	lsls	r1, r3, #29
 8003112:	d504      	bpl.n	800311e <HAL_RCC_ClockConfig+0x5a>
 8003114:	4979      	ldr	r1, [pc, #484]	; (80032fc <HAL_RCC_ClockConfig+0x238>)
 8003116:	684a      	ldr	r2, [r1, #4]
 8003118:	f442 62e0 	orr.w	r2, r2, #1792	; 0x700
 800311c:	604a      	str	r2, [r1, #4]
 800311e:	071a      	lsls	r2, r3, #28
 8003120:	d504      	bpl.n	800312c <HAL_RCC_ClockConfig+0x68>
 8003122:	4976      	ldr	r1, [pc, #472]	; (80032fc <HAL_RCC_ClockConfig+0x238>)
 8003124:	684a      	ldr	r2, [r1, #4]
 8003126:	f442 5260 	orr.w	r2, r2, #14336	; 0x3800
 800312a:	604a      	str	r2, [r1, #4]
 800312c:	68a1      	ldr	r1, [r4, #8]
 800312e:	f031 0280 	bics.w	r2, r1, #128	; 0x80
 8003132:	d014      	beq.n	800315e <HAL_RCC_ClockConfig+0x9a>
 8003134:	f021 0220 	bic.w	r2, r1, #32
 8003138:	2a90      	cmp	r2, #144	; 0x90
 800313a:	d010      	beq.n	800315e <HAL_RCC_ClockConfig+0x9a>
 800313c:	f021 0240 	bic.w	r2, r1, #64	; 0x40
 8003140:	2aa0      	cmp	r2, #160	; 0xa0
 8003142:	d00c      	beq.n	800315e <HAL_RCC_ClockConfig+0x9a>
 8003144:	f021 0210 	bic.w	r2, r1, #16
 8003148:	2ac0      	cmp	r2, #192	; 0xc0
 800314a:	d008      	beq.n	800315e <HAL_RCC_ClockConfig+0x9a>
 800314c:	29f0      	cmp	r1, #240	; 0xf0
 800314e:	d006      	beq.n	800315e <HAL_RCC_ClockConfig+0x9a>
 8003150:	f240 315f 	movw	r1, #863	; 0x35f
 8003154:	486a      	ldr	r0, [pc, #424]	; (8003300 <HAL_RCC_ClockConfig+0x23c>)
 8003156:	f7fd f9fd 	bl	8000554 <assert_failed>
 800315a:	68a1      	ldr	r1, [r4, #8]
 800315c:	6823      	ldr	r3, [r4, #0]
 800315e:	4867      	ldr	r0, [pc, #412]	; (80032fc <HAL_RCC_ClockConfig+0x238>)
 8003160:	6842      	ldr	r2, [r0, #4]
 8003162:	f022 02f0 	bic.w	r2, r2, #240	; 0xf0
 8003166:	430a      	orrs	r2, r1
 8003168:	6042      	str	r2, [r0, #4]
 800316a:	07db      	lsls	r3, r3, #31
 800316c:	d526      	bpl.n	80031bc <HAL_RCC_ClockConfig+0xf8>
 800316e:	6863      	ldr	r3, [r4, #4]
 8003170:	2b02      	cmp	r3, #2
 8003172:	f200 80b4 	bhi.w	80032de <HAL_RCC_ClockConfig+0x21a>
 8003176:	4a61      	ldr	r2, [pc, #388]	; (80032fc <HAL_RCC_ClockConfig+0x238>)
 8003178:	2b01      	cmp	r3, #1
 800317a:	6812      	ldr	r2, [r2, #0]
 800317c:	f000 80ab 	beq.w	80032d6 <HAL_RCC_ClockConfig+0x212>
 8003180:	2b02      	cmp	r3, #2
 8003182:	f000 80a2 	beq.w	80032ca <HAL_RCC_ClockConfig+0x206>
 8003186:	0790      	lsls	r0, r2, #30
 8003188:	d5bb      	bpl.n	8003102 <HAL_RCC_ClockConfig+0x3e>
 800318a:	4e5c      	ldr	r6, [pc, #368]	; (80032fc <HAL_RCC_ClockConfig+0x238>)
 800318c:	f241 3888 	movw	r8, #5000	; 0x1388
 8003190:	6872      	ldr	r2, [r6, #4]
 8003192:	f022 0203 	bic.w	r2, r2, #3
 8003196:	4313      	orrs	r3, r2
 8003198:	6073      	str	r3, [r6, #4]
 800319a:	f7fe f8e7 	bl	800136c <HAL_GetTick>
 800319e:	4607      	mov	r7, r0
 80031a0:	e005      	b.n	80031ae <HAL_RCC_ClockConfig+0xea>
 80031a2:	f7fe f8e3 	bl	800136c <HAL_GetTick>
 80031a6:	1bc0      	subs	r0, r0, r7
 80031a8:	4540      	cmp	r0, r8
 80031aa:	f200 809f 	bhi.w	80032ec <HAL_RCC_ClockConfig+0x228>
 80031ae:	6873      	ldr	r3, [r6, #4]
 80031b0:	6862      	ldr	r2, [r4, #4]
 80031b2:	f003 030c 	and.w	r3, r3, #12
 80031b6:	ebb3 0f82 	cmp.w	r3, r2, lsl #2
 80031ba:	d1f2      	bne.n	80031a2 <HAL_RCC_ClockConfig+0xde>
 80031bc:	4a4e      	ldr	r2, [pc, #312]	; (80032f8 <HAL_RCC_ClockConfig+0x234>)
 80031be:	6813      	ldr	r3, [r2, #0]
 80031c0:	f003 0307 	and.w	r3, r3, #7
 80031c4:	42ab      	cmp	r3, r5
 80031c6:	d909      	bls.n	80031dc <HAL_RCC_ClockConfig+0x118>
 80031c8:	6813      	ldr	r3, [r2, #0]
 80031ca:	f023 0307 	bic.w	r3, r3, #7
 80031ce:	432b      	orrs	r3, r5
 80031d0:	6013      	str	r3, [r2, #0]
 80031d2:	6813      	ldr	r3, [r2, #0]
 80031d4:	f003 0307 	and.w	r3, r3, #7
 80031d8:	42ab      	cmp	r3, r5
 80031da:	d192      	bne.n	8003102 <HAL_RCC_ClockConfig+0x3e>
 80031dc:	6823      	ldr	r3, [r4, #0]
 80031de:	0759      	lsls	r1, r3, #29
 80031e0:	d518      	bpl.n	8003214 <HAL_RCC_ClockConfig+0x150>
 80031e2:	68e1      	ldr	r1, [r4, #12]
 80031e4:	f431 6280 	bics.w	r2, r1, #1024	; 0x400
 80031e8:	d00e      	beq.n	8003208 <HAL_RCC_ClockConfig+0x144>
 80031ea:	f421 7200 	bic.w	r2, r1, #512	; 0x200
 80031ee:	f5b2 6fa0 	cmp.w	r2, #1280	; 0x500
 80031f2:	d009      	beq.n	8003208 <HAL_RCC_ClockConfig+0x144>
 80031f4:	f5b1 6fc0 	cmp.w	r1, #1536	; 0x600
 80031f8:	d006      	beq.n	8003208 <HAL_RCC_ClockConfig+0x144>
 80031fa:	f44f 7169 	mov.w	r1, #932	; 0x3a4
 80031fe:	4840      	ldr	r0, [pc, #256]	; (8003300 <HAL_RCC_ClockConfig+0x23c>)
 8003200:	f7fd f9a8 	bl	8000554 <assert_failed>
 8003204:	68e1      	ldr	r1, [r4, #12]
 8003206:	6823      	ldr	r3, [r4, #0]
 8003208:	483c      	ldr	r0, [pc, #240]	; (80032fc <HAL_RCC_ClockConfig+0x238>)
 800320a:	6842      	ldr	r2, [r0, #4]
 800320c:	f422 62e0 	bic.w	r2, r2, #1792	; 0x700
 8003210:	430a      	orrs	r2, r1
 8003212:	6042      	str	r2, [r0, #4]
 8003214:	071a      	lsls	r2, r3, #28
 8003216:	d518      	bpl.n	800324a <HAL_RCC_ClockConfig+0x186>
 8003218:	6922      	ldr	r2, [r4, #16]
 800321a:	f432 6380 	bics.w	r3, r2, #1024	; 0x400
 800321e:	d00d      	beq.n	800323c <HAL_RCC_ClockConfig+0x178>
 8003220:	f422 7300 	bic.w	r3, r2, #512	; 0x200
 8003224:	f5b3 6fa0 	cmp.w	r3, #1280	; 0x500
 8003228:	d008      	beq.n	800323c <HAL_RCC_ClockConfig+0x178>
 800322a:	f5b2 6fc0 	cmp.w	r2, #1536	; 0x600
 800322e:	d005      	beq.n	800323c <HAL_RCC_ClockConfig+0x178>
 8003230:	f240 31ab 	movw	r1, #939	; 0x3ab
 8003234:	4832      	ldr	r0, [pc, #200]	; (8003300 <HAL_RCC_ClockConfig+0x23c>)
 8003236:	f7fd f98d 	bl	8000554 <assert_failed>
 800323a:	6922      	ldr	r2, [r4, #16]
 800323c:	492f      	ldr	r1, [pc, #188]	; (80032fc <HAL_RCC_ClockConfig+0x238>)
 800323e:	684b      	ldr	r3, [r1, #4]
 8003240:	f423 5360 	bic.w	r3, r3, #14336	; 0x3800
 8003244:	ea43 03c2 	orr.w	r3, r3, r2, lsl #3
 8003248:	604b      	str	r3, [r1, #4]
 800324a:	f240 2201 	movw	r2, #513	; 0x201
 800324e:	4b2d      	ldr	r3, [pc, #180]	; (8003304 <HAL_RCC_ClockConfig+0x240>)
 8003250:	ac06      	add	r4, sp, #24
 8003252:	f8ad 2004 	strh.w	r2, [sp, #4]
 8003256:	cb0f      	ldmia	r3, {r0, r1, r2, r3}
 8003258:	e904 000f 	stmdb	r4, {r0, r1, r2, r3}
 800325c:	4927      	ldr	r1, [pc, #156]	; (80032fc <HAL_RCC_ClockConfig+0x238>)
 800325e:	684a      	ldr	r2, [r1, #4]
 8003260:	f002 030c 	and.w	r3, r2, #12
 8003264:	2b08      	cmp	r3, #8
 8003266:	d01d      	beq.n	80032a4 <HAL_RCC_ClockConfig+0x1e0>
 8003268:	4b27      	ldr	r3, [pc, #156]	; (8003308 <HAL_RCC_ClockConfig+0x244>)
 800326a:	4a24      	ldr	r2, [pc, #144]	; (80032fc <HAL_RCC_ClockConfig+0x238>)
 800326c:	4827      	ldr	r0, [pc, #156]	; (800330c <HAL_RCC_ClockConfig+0x248>)
 800326e:	6852      	ldr	r2, [r2, #4]
 8003270:	4927      	ldr	r1, [pc, #156]	; (8003310 <HAL_RCC_ClockConfig+0x24c>)
 8003272:	f3c2 1203 	ubfx	r2, r2, #4, #4
 8003276:	5c80      	ldrb	r0, [r0, r2]
 8003278:	4a26      	ldr	r2, [pc, #152]	; (8003314 <HAL_RCC_ClockConfig+0x250>)
 800327a:	40c3      	lsrs	r3, r0
 800327c:	6808      	ldr	r0, [r1, #0]
 800327e:	6013      	str	r3, [r2, #0]
 8003280:	f7fe f832 	bl	80012e8 <HAL_InitTick>
 8003284:	2000      	movs	r0, #0
 8003286:	b006      	add	sp, #24
 8003288:	e8bd 81f0 	ldmia.w	sp!, {r4, r5, r6, r7, r8, pc}
 800328c:	f240 3139 	movw	r1, #825	; 0x339
 8003290:	481b      	ldr	r0, [pc, #108]	; (8003300 <HAL_RCC_ClockConfig+0x23c>)
 8003292:	f7fd f95f 	bl	8000554 <assert_failed>
 8003296:	e724      	b.n	80030e2 <HAL_RCC_ClockConfig+0x1e>
 8003298:	f44f 714e 	mov.w	r1, #824	; 0x338
 800329c:	4818      	ldr	r0, [pc, #96]	; (8003300 <HAL_RCC_ClockConfig+0x23c>)
 800329e:	f7fd f959 	bl	8000554 <assert_failed>
 80032a2:	e71b      	b.n	80030dc <HAL_RCC_ClockConfig+0x18>
 80032a4:	f3c2 4383 	ubfx	r3, r2, #18, #4
 80032a8:	4423      	add	r3, r4
 80032aa:	f813 0c10 	ldrb.w	r0, [r3, #-16]
 80032ae:	03d3      	lsls	r3, r2, #15
 80032b0:	d51e      	bpl.n	80032f0 <HAL_RCC_ClockConfig+0x22c>
 80032b2:	684a      	ldr	r2, [r1, #4]
 80032b4:	4b14      	ldr	r3, [pc, #80]	; (8003308 <HAL_RCC_ClockConfig+0x244>)
 80032b6:	f3c2 4240 	ubfx	r2, r2, #17, #1
 80032ba:	fb03 f300 	mul.w	r3, r3, r0
 80032be:	4422      	add	r2, r4
 80032c0:	f812 2c14 	ldrb.w	r2, [r2, #-20]
 80032c4:	fbb3 f3f2 	udiv	r3, r3, r2
 80032c8:	e7cf      	b.n	800326a <HAL_RCC_ClockConfig+0x1a6>
 80032ca:	0196      	lsls	r6, r2, #6
 80032cc:	f53f af5d 	bmi.w	800318a <HAL_RCC_ClockConfig+0xc6>
 80032d0:	e717      	b.n	8003102 <HAL_RCC_ClockConfig+0x3e>
 80032d2:	2001      	movs	r0, #1
 80032d4:	4770      	bx	lr
 80032d6:	0397      	lsls	r7, r2, #14
 80032d8:	f53f af57 	bmi.w	800318a <HAL_RCC_ClockConfig+0xc6>
 80032dc:	e711      	b.n	8003102 <HAL_RCC_ClockConfig+0x3e>
 80032de:	f240 3166 	movw	r1, #870	; 0x366
 80032e2:	4807      	ldr	r0, [pc, #28]	; (8003300 <HAL_RCC_ClockConfig+0x23c>)
 80032e4:	f7fd f936 	bl	8000554 <assert_failed>
 80032e8:	6863      	ldr	r3, [r4, #4]
 80032ea:	e744      	b.n	8003176 <HAL_RCC_ClockConfig+0xb2>
 80032ec:	2003      	movs	r0, #3
 80032ee:	e709      	b.n	8003104 <HAL_RCC_ClockConfig+0x40>
 80032f0:	4b09      	ldr	r3, [pc, #36]	; (8003318 <HAL_RCC_ClockConfig+0x254>)
 80032f2:	fb03 f300 	mul.w	r3, r3, r0
 80032f6:	e7b8      	b.n	800326a <HAL_RCC_ClockConfig+0x1a6>
 80032f8:	40022000 	.word	0x40022000
 80032fc:	40021000 	.word	0x40021000
 8003300:	08003cac 	.word	0x08003cac
 8003304:	08003ce4 	.word	0x08003ce4
 8003308:	007a1200 	.word	0x007a1200
 800330c:	08003ba0 	.word	0x08003ba0
 8003310:	2000255c 	.word	0x2000255c
 8003314:	20000000 	.word	0x20000000
 8003318:	003d0900 	.word	0x003d0900

0800331c <HAL_RCC_GetPCLK1Freq>:
 800331c:	4b04      	ldr	r3, [pc, #16]	; (8003330 <HAL_RCC_GetPCLK1Freq+0x14>)
 800331e:	4905      	ldr	r1, [pc, #20]	; (8003334 <HAL_RCC_GetPCLK1Freq+0x18>)
 8003320:	685b      	ldr	r3, [r3, #4]
 8003322:	4a05      	ldr	r2, [pc, #20]	; (8003338 <HAL_RCC_GetPCLK1Freq+0x1c>)
 8003324:	f3c3 2302 	ubfx	r3, r3, #8, #3
 8003328:	5ccb      	ldrb	r3, [r1, r3]
 800332a:	6810      	ldr	r0, [r2, #0]
 800332c:	40d8      	lsrs	r0, r3
 800332e:	4770      	bx	lr
 8003330:	40021000 	.word	0x40021000
 8003334:	08003bb0 	.word	0x08003bb0
 8003338:	20000000 	.word	0x20000000

0800333c <HAL_TIM_Base_Init>:
 800333c:	2800      	cmp	r0, #0
 800333e:	f000 80a2 	beq.w	8003486 <HAL_TIM_Base_Init+0x14a>
 8003342:	b538      	push	{r3, r4, r5, lr}
 8003344:	4a51      	ldr	r2, [pc, #324]	; (800348c <HAL_TIM_Base_Init+0x150>)
 8003346:	6803      	ldr	r3, [r0, #0]
 8003348:	4604      	mov	r4, r0
 800334a:	4293      	cmp	r3, r2
 800334c:	d00f      	beq.n	800336e <HAL_TIM_Base_Init+0x32>
 800334e:	f1b3 4f80 	cmp.w	r3, #1073741824	; 0x40000000
 8003352:	d00c      	beq.n	800336e <HAL_TIM_Base_Init+0x32>
 8003354:	f5a2 3294 	sub.w	r2, r2, #75776	; 0x12800
 8003358:	4293      	cmp	r3, r2
 800335a:	d008      	beq.n	800336e <HAL_TIM_Base_Init+0x32>
 800335c:	f502 6280 	add.w	r2, r2, #1024	; 0x400
 8003360:	4293      	cmp	r3, r2
 8003362:	d004      	beq.n	800336e <HAL_TIM_Base_Init+0x32>
 8003364:	f240 1113 	movw	r1, #275	; 0x113
 8003368:	4849      	ldr	r0, [pc, #292]	; (8003490 <HAL_TIM_Base_Init+0x154>)
 800336a:	f7fd f8f3 	bl	8000554 <assert_failed>
 800336e:	68a3      	ldr	r3, [r4, #8]
 8003370:	f033 0210 	bics.w	r2, r3, #16
 8003374:	d00a      	beq.n	800338c <HAL_TIM_Base_Init+0x50>
 8003376:	f023 0240 	bic.w	r2, r3, #64	; 0x40
 800337a:	2a20      	cmp	r2, #32
 800337c:	d006      	beq.n	800338c <HAL_TIM_Base_Init+0x50>
 800337e:	2b40      	cmp	r3, #64	; 0x40
 8003380:	d004      	beq.n	800338c <HAL_TIM_Base_Init+0x50>
 8003382:	f44f 718a 	mov.w	r1, #276	; 0x114
 8003386:	4842      	ldr	r0, [pc, #264]	; (8003490 <HAL_TIM_Base_Init+0x154>)
 8003388:	f7fd f8e4 	bl	8000554 <assert_failed>
 800338c:	6923      	ldr	r3, [r4, #16]
 800338e:	f433 7280 	bics.w	r2, r3, #256	; 0x100
 8003392:	d002      	beq.n	800339a <HAL_TIM_Base_Init+0x5e>
 8003394:	f5b3 7f00 	cmp.w	r3, #512	; 0x200
 8003398:	d16b      	bne.n	8003472 <HAL_TIM_Base_Init+0x136>
 800339a:	69a3      	ldr	r3, [r4, #24]
 800339c:	f033 0380 	bics.w	r3, r3, #128	; 0x80
 80033a0:	d139      	bne.n	8003416 <HAL_TIM_Base_Init+0xda>
 80033a2:	f894 303d 	ldrb.w	r3, [r4, #61]	; 0x3d
 80033a6:	f003 02ff 	and.w	r2, r3, #255	; 0xff
 80033aa:	2b00      	cmp	r3, #0
 80033ac:	d03e      	beq.n	800342c <HAL_TIM_Base_Init+0xf0>
 80033ae:	2302      	movs	r3, #2
 80033b0:	6822      	ldr	r2, [r4, #0]
 80033b2:	4936      	ldr	r1, [pc, #216]	; (800348c <HAL_TIM_Base_Init+0x150>)
 80033b4:	f884 303d 	strb.w	r3, [r4, #61]	; 0x3d
 80033b8:	428a      	cmp	r2, r1
 80033ba:	6813      	ldr	r3, [r2, #0]
 80033bc:	d045      	beq.n	800344a <HAL_TIM_Base_Init+0x10e>
 80033be:	f1b2 4f80 	cmp.w	r2, #1073741824	; 0x40000000
 80033c2:	d039      	beq.n	8003438 <HAL_TIM_Base_Init+0xfc>
 80033c4:	f5a1 3194 	sub.w	r1, r1, #75776	; 0x12800
 80033c8:	428a      	cmp	r2, r1
 80033ca:	d035      	beq.n	8003438 <HAL_TIM_Base_Init+0xfc>
 80033cc:	f501 6180 	add.w	r1, r1, #1024	; 0x400
 80033d0:	428a      	cmp	r2, r1
 80033d2:	d031      	beq.n	8003438 <HAL_TIM_Base_Init+0xfc>
 80033d4:	69a5      	ldr	r5, [r4, #24]
 80033d6:	68e0      	ldr	r0, [r4, #12]
 80033d8:	6861      	ldr	r1, [r4, #4]
 80033da:	f023 0380 	bic.w	r3, r3, #128	; 0x80
 80033de:	432b      	orrs	r3, r5
 80033e0:	6013      	str	r3, [r2, #0]
 80033e2:	62d0      	str	r0, [r2, #44]	; 0x2c
 80033e4:	6291      	str	r1, [r2, #40]	; 0x28
 80033e6:	2301      	movs	r3, #1
 80033e8:	6153      	str	r3, [r2, #20]
 80033ea:	f884 3046 	strb.w	r3, [r4, #70]	; 0x46
 80033ee:	f884 303e 	strb.w	r3, [r4, #62]	; 0x3e
 80033f2:	f884 303f 	strb.w	r3, [r4, #63]	; 0x3f
 80033f6:	f884 3040 	strb.w	r3, [r4, #64]	; 0x40
 80033fa:	f884 3041 	strb.w	r3, [r4, #65]	; 0x41
 80033fe:	f884 3042 	strb.w	r3, [r4, #66]	; 0x42
 8003402:	f884 3043 	strb.w	r3, [r4, #67]	; 0x43
 8003406:	f884 3044 	strb.w	r3, [r4, #68]	; 0x44
 800340a:	f884 3045 	strb.w	r3, [r4, #69]	; 0x45
 800340e:	f884 303d 	strb.w	r3, [r4, #61]	; 0x3d
 8003412:	2000      	movs	r0, #0
 8003414:	bd38      	pop	{r3, r4, r5, pc}
 8003416:	f44f 718b 	mov.w	r1, #278	; 0x116
 800341a:	481d      	ldr	r0, [pc, #116]	; (8003490 <HAL_TIM_Base_Init+0x154>)
 800341c:	f7fd f89a 	bl	8000554 <assert_failed>
 8003420:	f894 303d 	ldrb.w	r3, [r4, #61]	; 0x3d
 8003424:	f003 02ff 	and.w	r2, r3, #255	; 0xff
 8003428:	2b00      	cmp	r3, #0
 800342a:	d1c0      	bne.n	80033ae <HAL_TIM_Base_Init+0x72>
 800342c:	4620      	mov	r0, r4
 800342e:	f884 203c 	strb.w	r2, [r4, #60]	; 0x3c
 8003432:	f7fd f993 	bl	800075c <HAL_TIM_Base_MspInit>
 8003436:	e7ba      	b.n	80033ae <HAL_TIM_Base_Init+0x72>
 8003438:	68a1      	ldr	r1, [r4, #8]
 800343a:	f023 0370 	bic.w	r3, r3, #112	; 0x70
 800343e:	430b      	orrs	r3, r1
 8003440:	6921      	ldr	r1, [r4, #16]
 8003442:	f423 7340 	bic.w	r3, r3, #768	; 0x300
 8003446:	430b      	orrs	r3, r1
 8003448:	e7c4      	b.n	80033d4 <HAL_TIM_Base_Init+0x98>
 800344a:	68a1      	ldr	r1, [r4, #8]
 800344c:	f023 0370 	bic.w	r3, r3, #112	; 0x70
 8003450:	430b      	orrs	r3, r1
 8003452:	6921      	ldr	r1, [r4, #16]
 8003454:	f423 7340 	bic.w	r3, r3, #768	; 0x300
 8003458:	430b      	orrs	r3, r1
 800345a:	69a1      	ldr	r1, [r4, #24]
 800345c:	f023 0380 	bic.w	r3, r3, #128	; 0x80
 8003460:	430b      	orrs	r3, r1
 8003462:	6013      	str	r3, [r2, #0]
 8003464:	68e3      	ldr	r3, [r4, #12]
 8003466:	62d3      	str	r3, [r2, #44]	; 0x2c
 8003468:	6863      	ldr	r3, [r4, #4]
 800346a:	6293      	str	r3, [r2, #40]	; 0x28
 800346c:	6963      	ldr	r3, [r4, #20]
 800346e:	6313      	str	r3, [r2, #48]	; 0x30
 8003470:	e7b9      	b.n	80033e6 <HAL_TIM_Base_Init+0xaa>
 8003472:	f240 1115 	movw	r1, #277	; 0x115
 8003476:	4806      	ldr	r0, [pc, #24]	; (8003490 <HAL_TIM_Base_Init+0x154>)
 8003478:	f7fd f86c 	bl	8000554 <assert_failed>
 800347c:	69a3      	ldr	r3, [r4, #24]
 800347e:	f033 0380 	bics.w	r3, r3, #128	; 0x80
 8003482:	d08e      	beq.n	80033a2 <HAL_TIM_Base_Init+0x66>
 8003484:	e7c7      	b.n	8003416 <HAL_TIM_Base_Init+0xda>
 8003486:	2001      	movs	r0, #1
 8003488:	4770      	bx	lr
 800348a:	bf00      	nop
 800348c:	40012c00 	.word	0x40012c00
 8003490:	08003cf8 	.word	0x08003cf8

08003494 <HAL_TIM_Base_Start_IT>:
 8003494:	4a1e      	ldr	r2, [pc, #120]	; (8003510 <HAL_TIM_Base_Start_IT+0x7c>)
 8003496:	6803      	ldr	r3, [r0, #0]
 8003498:	b510      	push	{r4, lr}
 800349a:	4293      	cmp	r3, r2
 800349c:	4604      	mov	r4, r0
 800349e:	d00f      	beq.n	80034c0 <HAL_TIM_Base_Start_IT+0x2c>
 80034a0:	f1b3 4f80 	cmp.w	r3, #1073741824	; 0x40000000
 80034a4:	d00c      	beq.n	80034c0 <HAL_TIM_Base_Start_IT+0x2c>
 80034a6:	f5a2 3294 	sub.w	r2, r2, #75776	; 0x12800
 80034aa:	4293      	cmp	r3, r2
 80034ac:	d008      	beq.n	80034c0 <HAL_TIM_Base_Start_IT+0x2c>
 80034ae:	f502 6280 	add.w	r2, r2, #1024	; 0x400
 80034b2:	4293      	cmp	r3, r2
 80034b4:	d004      	beq.n	80034c0 <HAL_TIM_Base_Start_IT+0x2c>
 80034b6:	f240 11cf 	movw	r1, #463	; 0x1cf
 80034ba:	4816      	ldr	r0, [pc, #88]	; (8003514 <HAL_TIM_Base_Start_IT+0x80>)
 80034bc:	f7fd f84a 	bl	8000554 <assert_failed>
 80034c0:	f894 303d 	ldrb.w	r3, [r4, #61]	; 0x3d
 80034c4:	2b01      	cmp	r3, #1
 80034c6:	d11f      	bne.n	8003508 <HAL_TIM_Base_Start_IT+0x74>
 80034c8:	2202      	movs	r2, #2
 80034ca:	6823      	ldr	r3, [r4, #0]
 80034cc:	f884 203d 	strb.w	r2, [r4, #61]	; 0x3d
 80034d0:	68da      	ldr	r2, [r3, #12]
 80034d2:	490f      	ldr	r1, [pc, #60]	; (8003510 <HAL_TIM_Base_Start_IT+0x7c>)
 80034d4:	f042 0201 	orr.w	r2, r2, #1
 80034d8:	428b      	cmp	r3, r1
 80034da:	60da      	str	r2, [r3, #12]
 80034dc:	d009      	beq.n	80034f2 <HAL_TIM_Base_Start_IT+0x5e>
 80034de:	f1b3 4f80 	cmp.w	r3, #1073741824	; 0x40000000
 80034e2:	d006      	beq.n	80034f2 <HAL_TIM_Base_Start_IT+0x5e>
 80034e4:	4a0c      	ldr	r2, [pc, #48]	; (8003518 <HAL_TIM_Base_Start_IT+0x84>)
 80034e6:	4293      	cmp	r3, r2
 80034e8:	d003      	beq.n	80034f2 <HAL_TIM_Base_Start_IT+0x5e>
 80034ea:	f502 6280 	add.w	r2, r2, #1024	; 0x400
 80034ee:	4293      	cmp	r3, r2
 80034f0:	d104      	bne.n	80034fc <HAL_TIM_Base_Start_IT+0x68>
 80034f2:	689a      	ldr	r2, [r3, #8]
 80034f4:	f002 0207 	and.w	r2, r2, #7
 80034f8:	2a06      	cmp	r2, #6
 80034fa:	d007      	beq.n	800350c <HAL_TIM_Base_Start_IT+0x78>
 80034fc:	681a      	ldr	r2, [r3, #0]
 80034fe:	2000      	movs	r0, #0
 8003500:	f042 0201 	orr.w	r2, r2, #1
 8003504:	601a      	str	r2, [r3, #0]
 8003506:	bd10      	pop	{r4, pc}
 8003508:	2001      	movs	r0, #1
 800350a:	bd10      	pop	{r4, pc}
 800350c:	2000      	movs	r0, #0
 800350e:	bd10      	pop	{r4, pc}
 8003510:	40012c00 	.word	0x40012c00
 8003514:	08003cf8 	.word	0x08003cf8
 8003518:	40000400 	.word	0x40000400

0800351c <HAL_TIM_ConfigClockSource>:
 800351c:	f890 303c 	ldrb.w	r3, [r0, #60]	; 0x3c
 8003520:	2b01      	cmp	r3, #1
 8003522:	f000 8146 	beq.w	80037b2 <HAL_TIM_ConfigClockSource+0x296>
 8003526:	2302      	movs	r3, #2
 8003528:	2201      	movs	r2, #1
 800352a:	b570      	push	{r4, r5, r6, lr}
 800352c:	f880 203c 	strb.w	r2, [r0, #60]	; 0x3c
 8003530:	f880 303d 	strb.w	r3, [r0, #61]	; 0x3d
 8003534:	680b      	ldr	r3, [r1, #0]
 8003536:	4604      	mov	r4, r0
 8003538:	f5b3 5f80 	cmp.w	r3, #4096	; 0x1000
 800353c:	460d      	mov	r5, r1
 800353e:	f000 8107 	beq.w	8003750 <HAL_TIM_ConfigClockSource+0x234>
 8003542:	f5b3 5f00 	cmp.w	r3, #8192	; 0x2000
 8003546:	f000 8122 	beq.w	800378e <HAL_TIM_ConfigClockSource+0x272>
 800354a:	f033 0230 	bics.w	r2, r3, #48	; 0x30
 800354e:	f040 8126 	bne.w	800379e <HAL_TIM_ConfigClockSource+0x282>
 8003552:	6822      	ldr	r2, [r4, #0]
 8003554:	2b60      	cmp	r3, #96	; 0x60
 8003556:	6891      	ldr	r1, [r2, #8]
 8003558:	f421 417f 	bic.w	r1, r1, #65280	; 0xff00
 800355c:	f021 0177 	bic.w	r1, r1, #119	; 0x77
 8003560:	6091      	str	r1, [r2, #8]
 8003562:	f000 8169 	beq.w	8003838 <HAL_TIM_ConfigClockSource+0x31c>
 8003566:	d86e      	bhi.n	8003646 <HAL_TIM_ConfigClockSource+0x12a>
 8003568:	2b40      	cmp	r3, #64	; 0x40
 800356a:	f000 8124 	beq.w	80037b6 <HAL_TIM_ConfigClockSource+0x29a>
 800356e:	d944      	bls.n	80035fa <HAL_TIM_ConfigClockSource+0xde>
 8003570:	2b50      	cmp	r3, #80	; 0x50
 8003572:	d13b      	bne.n	80035ec <HAL_TIM_ConfigClockSource+0xd0>
 8003574:	4bae      	ldr	r3, [pc, #696]	; (8003830 <HAL_TIM_ConfigClockSource+0x314>)
 8003576:	429a      	cmp	r2, r3
 8003578:	d00f      	beq.n	800359a <HAL_TIM_ConfigClockSource+0x7e>
 800357a:	f1b2 4f80 	cmp.w	r2, #1073741824	; 0x40000000
 800357e:	d00c      	beq.n	800359a <HAL_TIM_ConfigClockSource+0x7e>
 8003580:	f5a3 3394 	sub.w	r3, r3, #75776	; 0x12800
 8003584:	429a      	cmp	r2, r3
 8003586:	d008      	beq.n	800359a <HAL_TIM_ConfigClockSource+0x7e>
 8003588:	f503 6380 	add.w	r3, r3, #1024	; 0x400
 800358c:	429a      	cmp	r2, r3
 800358e:	d004      	beq.n	800359a <HAL_TIM_ConfigClockSource+0x7e>
 8003590:	f241 4171 	movw	r1, #5233	; 0x1471
 8003594:	48a7      	ldr	r0, [pc, #668]	; (8003834 <HAL_TIM_ConfigClockSource+0x318>)
 8003596:	f7fc ffdd 	bl	8000554 <assert_failed>
 800359a:	686b      	ldr	r3, [r5, #4]
 800359c:	f5b3 4f00 	cmp.w	r3, #32768	; 0x8000
 80035a0:	d009      	beq.n	80035b6 <HAL_TIM_ConfigClockSource+0x9a>
 80035a2:	f033 0202 	bics.w	r2, r3, #2
 80035a6:	d006      	beq.n	80035b6 <HAL_TIM_ConfigClockSource+0x9a>
 80035a8:	2b0a      	cmp	r3, #10
 80035aa:	d004      	beq.n	80035b6 <HAL_TIM_ConfigClockSource+0x9a>
 80035ac:	f241 4174 	movw	r1, #5236	; 0x1474
 80035b0:	48a0      	ldr	r0, [pc, #640]	; (8003834 <HAL_TIM_ConfigClockSource+0x318>)
 80035b2:	f7fc ffcf 	bl	8000554 <assert_failed>
 80035b6:	68ee      	ldr	r6, [r5, #12]
 80035b8:	2e0f      	cmp	r6, #15
 80035ba:	f200 8196 	bhi.w	80038ea <HAL_TIM_ConfigClockSource+0x3ce>
 80035be:	6823      	ldr	r3, [r4, #0]
 80035c0:	6869      	ldr	r1, [r5, #4]
 80035c2:	6a18      	ldr	r0, [r3, #32]
 80035c4:	6a1d      	ldr	r5, [r3, #32]
 80035c6:	f020 000a 	bic.w	r0, r0, #10
 80035ca:	f025 0501 	bic.w	r5, r5, #1
 80035ce:	621d      	str	r5, [r3, #32]
 80035d0:	699a      	ldr	r2, [r3, #24]
 80035d2:	4301      	orrs	r1, r0
 80035d4:	f022 02f0 	bic.w	r2, r2, #240	; 0xf0
 80035d8:	ea42 1206 	orr.w	r2, r2, r6, lsl #4
 80035dc:	619a      	str	r2, [r3, #24]
 80035de:	6219      	str	r1, [r3, #32]
 80035e0:	689a      	ldr	r2, [r3, #8]
 80035e2:	f022 0270 	bic.w	r2, r2, #112	; 0x70
 80035e6:	f042 0257 	orr.w	r2, r2, #87	; 0x57
 80035ea:	609a      	str	r2, [r3, #8]
 80035ec:	2301      	movs	r3, #1
 80035ee:	2000      	movs	r0, #0
 80035f0:	f884 303d 	strb.w	r3, [r4, #61]	; 0x3d
 80035f4:	f884 003c 	strb.w	r0, [r4, #60]	; 0x3c
 80035f8:	bd70      	pop	{r4, r5, r6, pc}
 80035fa:	2b20      	cmp	r3, #32
 80035fc:	d002      	beq.n	8003604 <HAL_TIM_ConfigClockSource+0xe8>
 80035fe:	d91e      	bls.n	800363e <HAL_TIM_ConfigClockSource+0x122>
 8003600:	2b30      	cmp	r3, #48	; 0x30
 8003602:	d1f3      	bne.n	80035ec <HAL_TIM_ConfigClockSource+0xd0>
 8003604:	498a      	ldr	r1, [pc, #552]	; (8003830 <HAL_TIM_ConfigClockSource+0x314>)
 8003606:	428a      	cmp	r2, r1
 8003608:	d011      	beq.n	800362e <HAL_TIM_ConfigClockSource+0x112>
 800360a:	f1b2 4f80 	cmp.w	r2, #1073741824	; 0x40000000
 800360e:	d00e      	beq.n	800362e <HAL_TIM_ConfigClockSource+0x112>
 8003610:	f5a1 3194 	sub.w	r1, r1, #75776	; 0x12800
 8003614:	428a      	cmp	r2, r1
 8003616:	d00a      	beq.n	800362e <HAL_TIM_ConfigClockSource+0x112>
 8003618:	f501 6180 	add.w	r1, r1, #1024	; 0x400
 800361c:	428a      	cmp	r2, r1
 800361e:	d006      	beq.n	800362e <HAL_TIM_ConfigClockSource+0x112>
 8003620:	f241 41a4 	movw	r1, #5284	; 0x14a4
 8003624:	4883      	ldr	r0, [pc, #524]	; (8003834 <HAL_TIM_ConfigClockSource+0x318>)
 8003626:	f7fc ff95 	bl	8000554 <assert_failed>
 800362a:	682b      	ldr	r3, [r5, #0]
 800362c:	6822      	ldr	r2, [r4, #0]
 800362e:	6891      	ldr	r1, [r2, #8]
 8003630:	f021 0170 	bic.w	r1, r1, #112	; 0x70
 8003634:	430b      	orrs	r3, r1
 8003636:	f043 0307 	orr.w	r3, r3, #7
 800363a:	6093      	str	r3, [r2, #8]
 800363c:	e7d6      	b.n	80035ec <HAL_TIM_ConfigClockSource+0xd0>
 800363e:	f033 0110 	bics.w	r1, r3, #16
 8003642:	d1d3      	bne.n	80035ec <HAL_TIM_ConfigClockSource+0xd0>
 8003644:	e7de      	b.n	8003604 <HAL_TIM_ConfigClockSource+0xe8>
 8003646:	f5b3 5f80 	cmp.w	r3, #4096	; 0x1000
 800364a:	f000 8088 	beq.w	800375e <HAL_TIM_ConfigClockSource+0x242>
 800364e:	f5b3 5f00 	cmp.w	r3, #8192	; 0x2000
 8003652:	d13d      	bne.n	80036d0 <HAL_TIM_ConfigClockSource+0x1b4>
 8003654:	4b76      	ldr	r3, [pc, #472]	; (8003830 <HAL_TIM_ConfigClockSource+0x314>)
 8003656:	429a      	cmp	r2, r3
 8003658:	d00f      	beq.n	800367a <HAL_TIM_ConfigClockSource+0x15e>
 800365a:	f1b2 4f80 	cmp.w	r2, #1073741824	; 0x40000000
 800365e:	d00c      	beq.n	800367a <HAL_TIM_ConfigClockSource+0x15e>
 8003660:	f5a3 3394 	sub.w	r3, r3, #75776	; 0x12800
 8003664:	429a      	cmp	r2, r3
 8003666:	d008      	beq.n	800367a <HAL_TIM_ConfigClockSource+0x15e>
 8003668:	f503 6380 	add.w	r3, r3, #1024	; 0x400
 800366c:	429a      	cmp	r2, r3
 800366e:	d004      	beq.n	800367a <HAL_TIM_ConfigClockSource+0x15e>
 8003670:	f241 415d 	movw	r1, #5213	; 0x145d
 8003674:	486f      	ldr	r0, [pc, #444]	; (8003834 <HAL_TIM_ConfigClockSource+0x318>)
 8003676:	f7fc ff6d 	bl	8000554 <assert_failed>
 800367a:	68ab      	ldr	r3, [r5, #8]
 800367c:	f433 5340 	bics.w	r3, r3, #12288	; 0x3000
 8003680:	d004      	beq.n	800368c <HAL_TIM_ConfigClockSource+0x170>
 8003682:	f44f 51a3 	mov.w	r1, #5216	; 0x1460
 8003686:	486b      	ldr	r0, [pc, #428]	; (8003834 <HAL_TIM_ConfigClockSource+0x318>)
 8003688:	f7fc ff64 	bl	8000554 <assert_failed>
 800368c:	686b      	ldr	r3, [r5, #4]
 800368e:	f5b3 4f00 	cmp.w	r3, #32768	; 0x8000
 8003692:	d009      	beq.n	80036a8 <HAL_TIM_ConfigClockSource+0x18c>
 8003694:	f033 0202 	bics.w	r2, r3, #2
 8003698:	d006      	beq.n	80036a8 <HAL_TIM_ConfigClockSource+0x18c>
 800369a:	2b0a      	cmp	r3, #10
 800369c:	d004      	beq.n	80036a8 <HAL_TIM_ConfigClockSource+0x18c>
 800369e:	f241 4161 	movw	r1, #5217	; 0x1461
 80036a2:	4864      	ldr	r0, [pc, #400]	; (8003834 <HAL_TIM_ConfigClockSource+0x318>)
 80036a4:	f7fc ff56 	bl	8000554 <assert_failed>
 80036a8:	68e8      	ldr	r0, [r5, #12]
 80036aa:	280f      	cmp	r0, #15
 80036ac:	f200 810f 	bhi.w	80038ce <HAL_TIM_ConfigClockSource+0x3b2>
 80036b0:	6822      	ldr	r2, [r4, #0]
 80036b2:	68ab      	ldr	r3, [r5, #8]
 80036b4:	6891      	ldr	r1, [r2, #8]
 80036b6:	686d      	ldr	r5, [r5, #4]
 80036b8:	f421 417f 	bic.w	r1, r1, #65280	; 0xff00
 80036bc:	432b      	orrs	r3, r5
 80036be:	430b      	orrs	r3, r1
 80036c0:	ea43 2300 	orr.w	r3, r3, r0, lsl #8
 80036c4:	6093      	str	r3, [r2, #8]
 80036c6:	6893      	ldr	r3, [r2, #8]
 80036c8:	f443 4380 	orr.w	r3, r3, #16384	; 0x4000
 80036cc:	6093      	str	r3, [r2, #8]
 80036ce:	e78d      	b.n	80035ec <HAL_TIM_ConfigClockSource+0xd0>
 80036d0:	2b70      	cmp	r3, #112	; 0x70
 80036d2:	d18b      	bne.n	80035ec <HAL_TIM_ConfigClockSource+0xd0>
 80036d4:	4b56      	ldr	r3, [pc, #344]	; (8003830 <HAL_TIM_ConfigClockSource+0x314>)
 80036d6:	429a      	cmp	r2, r3
 80036d8:	d00f      	beq.n	80036fa <HAL_TIM_ConfigClockSource+0x1de>
 80036da:	f1b2 4f80 	cmp.w	r2, #1073741824	; 0x40000000
 80036de:	d00c      	beq.n	80036fa <HAL_TIM_ConfigClockSource+0x1de>
 80036e0:	f5a3 3394 	sub.w	r3, r3, #75776	; 0x12800
 80036e4:	429a      	cmp	r2, r3
 80036e6:	d008      	beq.n	80036fa <HAL_TIM_ConfigClockSource+0x1de>
 80036e8:	f503 6380 	add.w	r3, r3, #1024	; 0x400
 80036ec:	429a      	cmp	r2, r3
 80036ee:	d004      	beq.n	80036fa <HAL_TIM_ConfigClockSource+0x1de>
 80036f0:	f241 4145 	movw	r1, #5189	; 0x1445
 80036f4:	484f      	ldr	r0, [pc, #316]	; (8003834 <HAL_TIM_ConfigClockSource+0x318>)
 80036f6:	f7fc ff2d 	bl	8000554 <assert_failed>
 80036fa:	68ab      	ldr	r3, [r5, #8]
 80036fc:	f433 5340 	bics.w	r3, r3, #12288	; 0x3000
 8003700:	d004      	beq.n	800370c <HAL_TIM_ConfigClockSource+0x1f0>
 8003702:	f241 4148 	movw	r1, #5192	; 0x1448
 8003706:	484b      	ldr	r0, [pc, #300]	; (8003834 <HAL_TIM_ConfigClockSource+0x318>)
 8003708:	f7fc ff24 	bl	8000554 <assert_failed>
 800370c:	686b      	ldr	r3, [r5, #4]
 800370e:	f5b3 4f00 	cmp.w	r3, #32768	; 0x8000
 8003712:	d009      	beq.n	8003728 <HAL_TIM_ConfigClockSource+0x20c>
 8003714:	f033 0202 	bics.w	r2, r3, #2
 8003718:	d006      	beq.n	8003728 <HAL_TIM_ConfigClockSource+0x20c>
 800371a:	2b0a      	cmp	r3, #10
 800371c:	d004      	beq.n	8003728 <HAL_TIM_ConfigClockSource+0x20c>
 800371e:	f241 4149 	movw	r1, #5193	; 0x1449
 8003722:	4844      	ldr	r0, [pc, #272]	; (8003834 <HAL_TIM_ConfigClockSource+0x318>)
 8003724:	f7fc ff16 	bl	8000554 <assert_failed>
 8003728:	68e8      	ldr	r0, [r5, #12]
 800372a:	280f      	cmp	r0, #15
 800372c:	f200 80c8 	bhi.w	80038c0 <HAL_TIM_ConfigClockSource+0x3a4>
 8003730:	6822      	ldr	r2, [r4, #0]
 8003732:	68ab      	ldr	r3, [r5, #8]
 8003734:	6891      	ldr	r1, [r2, #8]
 8003736:	686d      	ldr	r5, [r5, #4]
 8003738:	f421 417f 	bic.w	r1, r1, #65280	; 0xff00
 800373c:	432b      	orrs	r3, r5
 800373e:	430b      	orrs	r3, r1
 8003740:	ea43 2300 	orr.w	r3, r3, r0, lsl #8
 8003744:	6093      	str	r3, [r2, #8]
 8003746:	6893      	ldr	r3, [r2, #8]
 8003748:	f043 0377 	orr.w	r3, r3, #119	; 0x77
 800374c:	6093      	str	r3, [r2, #8]
 800374e:	e74d      	b.n	80035ec <HAL_TIM_ConfigClockSource+0xd0>
 8003750:	6802      	ldr	r2, [r0, #0]
 8003752:	6893      	ldr	r3, [r2, #8]
 8003754:	f423 437f 	bic.w	r3, r3, #65280	; 0xff00
 8003758:	f023 0377 	bic.w	r3, r3, #119	; 0x77
 800375c:	6093      	str	r3, [r2, #8]
 800375e:	4b34      	ldr	r3, [pc, #208]	; (8003830 <HAL_TIM_ConfigClockSource+0x314>)
 8003760:	429a      	cmp	r2, r3
 8003762:	f43f af43 	beq.w	80035ec <HAL_TIM_ConfigClockSource+0xd0>
 8003766:	f1b2 4f80 	cmp.w	r2, #1073741824	; 0x40000000
 800376a:	f43f af3f 	beq.w	80035ec <HAL_TIM_ConfigClockSource+0xd0>
 800376e:	f5a3 3394 	sub.w	r3, r3, #75776	; 0x12800
 8003772:	429a      	cmp	r2, r3
 8003774:	f43f af3a 	beq.w	80035ec <HAL_TIM_ConfigClockSource+0xd0>
 8003778:	f503 6380 	add.w	r3, r3, #1024	; 0x400
 800377c:	429a      	cmp	r2, r3
 800377e:	f43f af35 	beq.w	80035ec <HAL_TIM_ConfigClockSource+0xd0>
 8003782:	f241 413e 	movw	r1, #5182	; 0x143e
 8003786:	482b      	ldr	r0, [pc, #172]	; (8003834 <HAL_TIM_ConfigClockSource+0x318>)
 8003788:	f7fc fee4 	bl	8000554 <assert_failed>
 800378c:	e72e      	b.n	80035ec <HAL_TIM_ConfigClockSource+0xd0>
 800378e:	6802      	ldr	r2, [r0, #0]
 8003790:	6893      	ldr	r3, [r2, #8]
 8003792:	f423 437f 	bic.w	r3, r3, #65280	; 0xff00
 8003796:	f023 0377 	bic.w	r3, r3, #119	; 0x77
 800379a:	6093      	str	r3, [r2, #8]
 800379c:	e75a      	b.n	8003654 <HAL_TIM_ConfigClockSource+0x138>
 800379e:	2a40      	cmp	r2, #64	; 0x40
 80037a0:	f43f aed7 	beq.w	8003552 <HAL_TIM_ConfigClockSource+0x36>
 80037a4:	f241 4132 	movw	r1, #5170	; 0x1432
 80037a8:	4822      	ldr	r0, [pc, #136]	; (8003834 <HAL_TIM_ConfigClockSource+0x318>)
 80037aa:	f7fc fed3 	bl	8000554 <assert_failed>
 80037ae:	682b      	ldr	r3, [r5, #0]
 80037b0:	e6cf      	b.n	8003552 <HAL_TIM_ConfigClockSource+0x36>
 80037b2:	2002      	movs	r0, #2
 80037b4:	4770      	bx	lr
 80037b6:	4b1e      	ldr	r3, [pc, #120]	; (8003830 <HAL_TIM_ConfigClockSource+0x314>)
 80037b8:	429a      	cmp	r2, r3
 80037ba:	d00f      	beq.n	80037dc <HAL_TIM_ConfigClockSource+0x2c0>
 80037bc:	f1b2 4f80 	cmp.w	r2, #1073741824	; 0x40000000
 80037c0:	d00c      	beq.n	80037dc <HAL_TIM_ConfigClockSource+0x2c0>
 80037c2:	f5a3 3394 	sub.w	r3, r3, #75776	; 0x12800
 80037c6:	429a      	cmp	r2, r3
 80037c8:	d008      	beq.n	80037dc <HAL_TIM_ConfigClockSource+0x2c0>
 80037ca:	f503 6380 	add.w	r3, r3, #1024	; 0x400
 80037ce:	429a      	cmp	r2, r3
 80037d0:	d004      	beq.n	80037dc <HAL_TIM_ConfigClockSource+0x2c0>
 80037d2:	f241 4191 	movw	r1, #5265	; 0x1491
 80037d6:	4817      	ldr	r0, [pc, #92]	; (8003834 <HAL_TIM_ConfigClockSource+0x318>)
 80037d8:	f7fc febc 	bl	8000554 <assert_failed>
 80037dc:	686b      	ldr	r3, [r5, #4]
 80037de:	f5b3 4f00 	cmp.w	r3, #32768	; 0x8000
 80037e2:	d009      	beq.n	80037f8 <HAL_TIM_ConfigClockSource+0x2dc>
 80037e4:	f033 0202 	bics.w	r2, r3, #2
 80037e8:	d006      	beq.n	80037f8 <HAL_TIM_ConfigClockSource+0x2dc>
 80037ea:	2b0a      	cmp	r3, #10
 80037ec:	d004      	beq.n	80037f8 <HAL_TIM_ConfigClockSource+0x2dc>
 80037ee:	f241 4194 	movw	r1, #5268	; 0x1494
 80037f2:	4810      	ldr	r0, [pc, #64]	; (8003834 <HAL_TIM_ConfigClockSource+0x318>)
 80037f4:	f7fc feae 	bl	8000554 <assert_failed>
 80037f8:	68ee      	ldr	r6, [r5, #12]
 80037fa:	2e0f      	cmp	r6, #15
 80037fc:	d86e      	bhi.n	80038dc <HAL_TIM_ConfigClockSource+0x3c0>
 80037fe:	6823      	ldr	r3, [r4, #0]
 8003800:	6869      	ldr	r1, [r5, #4]
 8003802:	6a18      	ldr	r0, [r3, #32]
 8003804:	6a1d      	ldr	r5, [r3, #32]
 8003806:	f020 000a 	bic.w	r0, r0, #10
 800380a:	f025 0501 	bic.w	r5, r5, #1
 800380e:	621d      	str	r5, [r3, #32]
 8003810:	699a      	ldr	r2, [r3, #24]
 8003812:	4301      	orrs	r1, r0
 8003814:	f022 02f0 	bic.w	r2, r2, #240	; 0xf0
 8003818:	ea42 1206 	orr.w	r2, r2, r6, lsl #4
 800381c:	619a      	str	r2, [r3, #24]
 800381e:	6219      	str	r1, [r3, #32]
 8003820:	689a      	ldr	r2, [r3, #8]
 8003822:	f022 0270 	bic.w	r2, r2, #112	; 0x70
 8003826:	f042 0247 	orr.w	r2, r2, #71	; 0x47
 800382a:	609a      	str	r2, [r3, #8]
 800382c:	e6de      	b.n	80035ec <HAL_TIM_ConfigClockSource+0xd0>
 800382e:	bf00      	nop
 8003830:	40012c00 	.word	0x40012c00
 8003834:	08003cf8 	.word	0x08003cf8
 8003838:	4b2f      	ldr	r3, [pc, #188]	; (80038f8 <HAL_TIM_ConfigClockSource+0x3dc>)
 800383a:	429a      	cmp	r2, r3
 800383c:	d00f      	beq.n	800385e <HAL_TIM_ConfigClockSource+0x342>
 800383e:	f1b2 4f80 	cmp.w	r2, #1073741824	; 0x40000000
 8003842:	d00c      	beq.n	800385e <HAL_TIM_ConfigClockSource+0x342>
 8003844:	f5a3 3394 	sub.w	r3, r3, #75776	; 0x12800
 8003848:	429a      	cmp	r2, r3
 800384a:	d008      	beq.n	800385e <HAL_TIM_ConfigClockSource+0x342>
 800384c:	f503 6380 	add.w	r3, r3, #1024	; 0x400
 8003850:	429a      	cmp	r2, r3
 8003852:	d004      	beq.n	800385e <HAL_TIM_ConfigClockSource+0x342>
 8003854:	f241 4181 	movw	r1, #5249	; 0x1481
 8003858:	4828      	ldr	r0, [pc, #160]	; (80038fc <HAL_TIM_ConfigClockSource+0x3e0>)
 800385a:	f7fc fe7b 	bl	8000554 <assert_failed>
 800385e:	686b      	ldr	r3, [r5, #4]
 8003860:	f5b3 4f00 	cmp.w	r3, #32768	; 0x8000
 8003864:	d009      	beq.n	800387a <HAL_TIM_ConfigClockSource+0x35e>
 8003866:	f033 0202 	bics.w	r2, r3, #2
 800386a:	d006      	beq.n	800387a <HAL_TIM_ConfigClockSource+0x35e>
 800386c:	2b0a      	cmp	r3, #10
 800386e:	d004      	beq.n	800387a <HAL_TIM_ConfigClockSource+0x35e>
 8003870:	f241 4184 	movw	r1, #5252	; 0x1484
 8003874:	4821      	ldr	r0, [pc, #132]	; (80038fc <HAL_TIM_ConfigClockSource+0x3e0>)
 8003876:	f7fc fe6d 	bl	8000554 <assert_failed>
 800387a:	68ee      	ldr	r6, [r5, #12]
 800387c:	2e0f      	cmp	r6, #15
 800387e:	d818      	bhi.n	80038b2 <HAL_TIM_ConfigClockSource+0x396>
 8003880:	6823      	ldr	r3, [r4, #0]
 8003882:	686d      	ldr	r5, [r5, #4]
 8003884:	6a18      	ldr	r0, [r3, #32]
 8003886:	f020 0010 	bic.w	r0, r0, #16
 800388a:	6218      	str	r0, [r3, #32]
 800388c:	6999      	ldr	r1, [r3, #24]
 800388e:	6a1a      	ldr	r2, [r3, #32]
 8003890:	f421 4170 	bic.w	r1, r1, #61440	; 0xf000
 8003894:	f022 02a0 	bic.w	r2, r2, #160	; 0xa0
 8003898:	ea42 1205 	orr.w	r2, r2, r5, lsl #4
 800389c:	ea41 3106 	orr.w	r1, r1, r6, lsl #12
 80038a0:	6199      	str	r1, [r3, #24]
 80038a2:	621a      	str	r2, [r3, #32]
 80038a4:	689a      	ldr	r2, [r3, #8]
 80038a6:	f022 0270 	bic.w	r2, r2, #112	; 0x70
 80038aa:	f042 0267 	orr.w	r2, r2, #103	; 0x67
 80038ae:	609a      	str	r2, [r3, #8]
 80038b0:	e69c      	b.n	80035ec <HAL_TIM_ConfigClockSource+0xd0>
 80038b2:	f241 4185 	movw	r1, #5253	; 0x1485
 80038b6:	4811      	ldr	r0, [pc, #68]	; (80038fc <HAL_TIM_ConfigClockSource+0x3e0>)
 80038b8:	f7fc fe4c 	bl	8000554 <assert_failed>
 80038bc:	68ee      	ldr	r6, [r5, #12]
 80038be:	e7df      	b.n	8003880 <HAL_TIM_ConfigClockSource+0x364>
 80038c0:	480e      	ldr	r0, [pc, #56]	; (80038fc <HAL_TIM_ConfigClockSource+0x3e0>)
 80038c2:	f241 414a 	movw	r1, #5194	; 0x144a
 80038c6:	f7fc fe45 	bl	8000554 <assert_failed>
 80038ca:	68e8      	ldr	r0, [r5, #12]
 80038cc:	e730      	b.n	8003730 <HAL_TIM_ConfigClockSource+0x214>
 80038ce:	480b      	ldr	r0, [pc, #44]	; (80038fc <HAL_TIM_ConfigClockSource+0x3e0>)
 80038d0:	f241 4162 	movw	r1, #5218	; 0x1462
 80038d4:	f7fc fe3e 	bl	8000554 <assert_failed>
 80038d8:	68e8      	ldr	r0, [r5, #12]
 80038da:	e6e9      	b.n	80036b0 <HAL_TIM_ConfigClockSource+0x194>
 80038dc:	f241 4195 	movw	r1, #5269	; 0x1495
 80038e0:	4806      	ldr	r0, [pc, #24]	; (80038fc <HAL_TIM_ConfigClockSource+0x3e0>)
 80038e2:	f7fc fe37 	bl	8000554 <assert_failed>
 80038e6:	68ee      	ldr	r6, [r5, #12]
 80038e8:	e789      	b.n	80037fe <HAL_TIM_ConfigClockSource+0x2e2>
 80038ea:	f241 4175 	movw	r1, #5237	; 0x1475
 80038ee:	4803      	ldr	r0, [pc, #12]	; (80038fc <HAL_TIM_ConfigClockSource+0x3e0>)
 80038f0:	f7fc fe30 	bl	8000554 <assert_failed>
 80038f4:	68ee      	ldr	r6, [r5, #12]
 80038f6:	e662      	b.n	80035be <HAL_TIM_ConfigClockSource+0xa2>
 80038f8:	40012c00 	.word	0x40012c00
 80038fc:	08003cf8 	.word	0x08003cf8

08003900 <HAL_TIM_PeriodElapsedCallback>:
 8003900:	4770      	bx	lr
 8003902:	bf00      	nop

08003904 <HAL_TIM_OC_DelayElapsedCallback>:
 8003904:	4770      	bx	lr
 8003906:	bf00      	nop

08003908 <HAL_TIM_IC_CaptureCallback>:
 8003908:	4770      	bx	lr
 800390a:	bf00      	nop

0800390c <HAL_TIM_PWM_PulseFinishedCallback>:
 800390c:	4770      	bx	lr
 800390e:	bf00      	nop

08003910 <HAL_TIM_TriggerCallback>:
 8003910:	4770      	bx	lr
 8003912:	bf00      	nop

08003914 <HAL_TIM_IRQHandler>:
 8003914:	6803      	ldr	r3, [r0, #0]
 8003916:	b510      	push	{r4, lr}
 8003918:	691a      	ldr	r2, [r3, #16]
 800391a:	4604      	mov	r4, r0
 800391c:	0791      	lsls	r1, r2, #30
 800391e:	d502      	bpl.n	8003926 <HAL_TIM_IRQHandler+0x12>
 8003920:	68da      	ldr	r2, [r3, #12]
 8003922:	0792      	lsls	r2, r2, #30
 8003924:	d45f      	bmi.n	80039e6 <HAL_TIM_IRQHandler+0xd2>
 8003926:	691a      	ldr	r2, [r3, #16]
 8003928:	0750      	lsls	r0, r2, #29
 800392a:	d502      	bpl.n	8003932 <HAL_TIM_IRQHandler+0x1e>
 800392c:	68da      	ldr	r2, [r3, #12]
 800392e:	0751      	lsls	r1, r2, #29
 8003930:	d446      	bmi.n	80039c0 <HAL_TIM_IRQHandler+0xac>
 8003932:	691a      	ldr	r2, [r3, #16]
 8003934:	0712      	lsls	r2, r2, #28
 8003936:	d502      	bpl.n	800393e <HAL_TIM_IRQHandler+0x2a>
 8003938:	68da      	ldr	r2, [r3, #12]
 800393a:	0710      	lsls	r0, r2, #28
 800393c:	d42e      	bmi.n	800399c <HAL_TIM_IRQHandler+0x88>
 800393e:	691a      	ldr	r2, [r3, #16]
 8003940:	06d2      	lsls	r2, r2, #27
 8003942:	d502      	bpl.n	800394a <HAL_TIM_IRQHandler+0x36>
 8003944:	68da      	ldr	r2, [r3, #12]
 8003946:	06d0      	lsls	r0, r2, #27
 8003948:	d418      	bmi.n	800397c <HAL_TIM_IRQHandler+0x68>
 800394a:	691a      	ldr	r2, [r3, #16]
 800394c:	07d1      	lsls	r1, r2, #31
 800394e:	d502      	bpl.n	8003956 <HAL_TIM_IRQHandler+0x42>
 8003950:	68da      	ldr	r2, [r3, #12]
 8003952:	07d2      	lsls	r2, r2, #31
 8003954:	d45d      	bmi.n	8003a12 <HAL_TIM_IRQHandler+0xfe>
 8003956:	691a      	ldr	r2, [r3, #16]
 8003958:	0610      	lsls	r0, r2, #24
 800395a:	d502      	bpl.n	8003962 <HAL_TIM_IRQHandler+0x4e>
 800395c:	68da      	ldr	r2, [r3, #12]
 800395e:	0611      	lsls	r1, r2, #24
 8003960:	d45f      	bmi.n	8003a22 <HAL_TIM_IRQHandler+0x10e>
 8003962:	691a      	ldr	r2, [r3, #16]
 8003964:	0652      	lsls	r2, r2, #25
 8003966:	d502      	bpl.n	800396e <HAL_TIM_IRQHandler+0x5a>
 8003968:	68da      	ldr	r2, [r3, #12]
 800396a:	0650      	lsls	r0, r2, #25
 800396c:	d461      	bmi.n	8003a32 <HAL_TIM_IRQHandler+0x11e>
 800396e:	691a      	ldr	r2, [r3, #16]
 8003970:	0691      	lsls	r1, r2, #26
 8003972:	d502      	bpl.n	800397a <HAL_TIM_IRQHandler+0x66>
 8003974:	68da      	ldr	r2, [r3, #12]
 8003976:	0692      	lsls	r2, r2, #26
 8003978:	d443      	bmi.n	8003a02 <HAL_TIM_IRQHandler+0xee>
 800397a:	bd10      	pop	{r4, pc}
 800397c:	f06f 0110 	mvn.w	r1, #16
 8003980:	2208      	movs	r2, #8
 8003982:	6119      	str	r1, [r3, #16]
 8003984:	7722      	strb	r2, [r4, #28]
 8003986:	69db      	ldr	r3, [r3, #28]
 8003988:	4620      	mov	r0, r4
 800398a:	f413 7f40 	tst.w	r3, #768	; 0x300
 800398e:	d064      	beq.n	8003a5a <HAL_TIM_IRQHandler+0x146>
 8003990:	f7ff ffba 	bl	8003908 <HAL_TIM_IC_CaptureCallback>
 8003994:	2200      	movs	r2, #0
 8003996:	6823      	ldr	r3, [r4, #0]
 8003998:	7722      	strb	r2, [r4, #28]
 800399a:	e7d6      	b.n	800394a <HAL_TIM_IRQHandler+0x36>
 800399c:	f06f 0108 	mvn.w	r1, #8
 80039a0:	2204      	movs	r2, #4
 80039a2:	6119      	str	r1, [r3, #16]
 80039a4:	7722      	strb	r2, [r4, #28]
 80039a6:	69db      	ldr	r3, [r3, #28]
 80039a8:	4620      	mov	r0, r4
 80039aa:	0799      	lsls	r1, r3, #30
 80039ac:	d152      	bne.n	8003a54 <HAL_TIM_IRQHandler+0x140>
 80039ae:	f7ff ffa9 	bl	8003904 <HAL_TIM_OC_DelayElapsedCallback>
 80039b2:	4620      	mov	r0, r4
 80039b4:	f7ff ffaa 	bl	800390c <HAL_TIM_PWM_PulseFinishedCallback>
 80039b8:	2200      	movs	r2, #0
 80039ba:	6823      	ldr	r3, [r4, #0]
 80039bc:	7722      	strb	r2, [r4, #28]
 80039be:	e7be      	b.n	800393e <HAL_TIM_IRQHandler+0x2a>
 80039c0:	f06f 0104 	mvn.w	r1, #4
 80039c4:	2202      	movs	r2, #2
 80039c6:	6119      	str	r1, [r3, #16]
 80039c8:	7722      	strb	r2, [r4, #28]
 80039ca:	699b      	ldr	r3, [r3, #24]
 80039cc:	4620      	mov	r0, r4
 80039ce:	f413 7f40 	tst.w	r3, #768	; 0x300
 80039d2:	d13c      	bne.n	8003a4e <HAL_TIM_IRQHandler+0x13a>
 80039d4:	f7ff ff96 	bl	8003904 <HAL_TIM_OC_DelayElapsedCallback>
 80039d8:	4620      	mov	r0, r4
 80039da:	f7ff ff97 	bl	800390c <HAL_TIM_PWM_PulseFinishedCallback>
 80039de:	2200      	movs	r2, #0
 80039e0:	6823      	ldr	r3, [r4, #0]
 80039e2:	7722      	strb	r2, [r4, #28]
 80039e4:	e7a5      	b.n	8003932 <HAL_TIM_IRQHandler+0x1e>
 80039e6:	f06f 0102 	mvn.w	r1, #2
 80039ea:	2201      	movs	r2, #1
 80039ec:	6119      	str	r1, [r3, #16]
 80039ee:	7702      	strb	r2, [r0, #28]
 80039f0:	699b      	ldr	r3, [r3, #24]
 80039f2:	079b      	lsls	r3, r3, #30
 80039f4:	d025      	beq.n	8003a42 <HAL_TIM_IRQHandler+0x12e>
 80039f6:	f7ff ff87 	bl	8003908 <HAL_TIM_IC_CaptureCallback>
 80039fa:	2200      	movs	r2, #0
 80039fc:	6823      	ldr	r3, [r4, #0]
 80039fe:	7722      	strb	r2, [r4, #28]
 8003a00:	e791      	b.n	8003926 <HAL_TIM_IRQHandler+0x12>
 8003a02:	f06f 0220 	mvn.w	r2, #32
 8003a06:	4620      	mov	r0, r4
 8003a08:	e8bd 4010 	ldmia.w	sp!, {r4, lr}
 8003a0c:	611a      	str	r2, [r3, #16]
 8003a0e:	f000 b88b 	b.w	8003b28 <HAL_TIMEx_CommutCallback>
 8003a12:	f06f 0201 	mvn.w	r2, #1
 8003a16:	4620      	mov	r0, r4
 8003a18:	611a      	str	r2, [r3, #16]
 8003a1a:	f7ff ff71 	bl	8003900 <HAL_TIM_PeriodElapsedCallback>
 8003a1e:	6823      	ldr	r3, [r4, #0]
 8003a20:	e799      	b.n	8003956 <HAL_TIM_IRQHandler+0x42>
 8003a22:	f06f 0280 	mvn.w	r2, #128	; 0x80
 8003a26:	4620      	mov	r0, r4
 8003a28:	611a      	str	r2, [r3, #16]
 8003a2a:	f000 f87f 	bl	8003b2c <HAL_TIMEx_BreakCallback>
 8003a2e:	6823      	ldr	r3, [r4, #0]
 8003a30:	e797      	b.n	8003962 <HAL_TIM_IRQHandler+0x4e>
 8003a32:	f06f 0240 	mvn.w	r2, #64	; 0x40
 8003a36:	4620      	mov	r0, r4
 8003a38:	611a      	str	r2, [r3, #16]
 8003a3a:	f7ff ff69 	bl	8003910 <HAL_TIM_TriggerCallback>
 8003a3e:	6823      	ldr	r3, [r4, #0]
 8003a40:	e795      	b.n	800396e <HAL_TIM_IRQHandler+0x5a>
 8003a42:	f7ff ff5f 	bl	8003904 <HAL_TIM_OC_DelayElapsedCallback>
 8003a46:	4620      	mov	r0, r4
 8003a48:	f7ff ff60 	bl	800390c <HAL_TIM_PWM_PulseFinishedCallback>
 8003a4c:	e7d5      	b.n	80039fa <HAL_TIM_IRQHandler+0xe6>
 8003a4e:	f7ff ff5b 	bl	8003908 <HAL_TIM_IC_CaptureCallback>
 8003a52:	e7c4      	b.n	80039de <HAL_TIM_IRQHandler+0xca>
 8003a54:	f7ff ff58 	bl	8003908 <HAL_TIM_IC_CaptureCallback>
 8003a58:	e7ae      	b.n	80039b8 <HAL_TIM_IRQHandler+0xa4>
 8003a5a:	f7ff ff53 	bl	8003904 <HAL_TIM_OC_DelayElapsedCallback>
 8003a5e:	4620      	mov	r0, r4
 8003a60:	f7ff ff54 	bl	800390c <HAL_TIM_PWM_PulseFinishedCallback>
 8003a64:	e796      	b.n	8003994 <HAL_TIM_IRQHandler+0x80>
 8003a66:	bf00      	nop

08003a68 <HAL_TIMEx_MasterConfigSynchronization>:
 8003a68:	b538      	push	{r3, r4, r5, lr}
 8003a6a:	4a2c      	ldr	r2, [pc, #176]	; (8003b1c <HAL_TIMEx_MasterConfigSynchronization+0xb4>)
 8003a6c:	6803      	ldr	r3, [r0, #0]
 8003a6e:	4604      	mov	r4, r0
 8003a70:	4293      	cmp	r3, r2
 8003a72:	460d      	mov	r5, r1
 8003a74:	d00f      	beq.n	8003a96 <HAL_TIMEx_MasterConfigSynchronization+0x2e>
 8003a76:	f1b3 4f80 	cmp.w	r3, #1073741824	; 0x40000000
 8003a7a:	d00c      	beq.n	8003a96 <HAL_TIMEx_MasterConfigSynchronization+0x2e>
 8003a7c:	f5a2 3294 	sub.w	r2, r2, #75776	; 0x12800
 8003a80:	4293      	cmp	r3, r2
 8003a82:	d008      	beq.n	8003a96 <HAL_TIMEx_MasterConfigSynchronization+0x2e>
 8003a84:	f502 6280 	add.w	r2, r2, #1024	; 0x400
 8003a88:	4293      	cmp	r3, r2
 8003a8a:	d004      	beq.n	8003a96 <HAL_TIMEx_MasterConfigSynchronization+0x2e>
 8003a8c:	f240 7186 	movw	r1, #1926	; 0x786
 8003a90:	4823      	ldr	r0, [pc, #140]	; (8003b20 <HAL_TIMEx_MasterConfigSynchronization+0xb8>)
 8003a92:	f7fc fd5f 	bl	8000554 <assert_failed>
 8003a96:	682b      	ldr	r3, [r5, #0]
 8003a98:	f033 0330 	bics.w	r3, r3, #48	; 0x30
 8003a9c:	d006      	beq.n	8003aac <HAL_TIMEx_MasterConfigSynchronization+0x44>
 8003a9e:	2b40      	cmp	r3, #64	; 0x40
 8003aa0:	d004      	beq.n	8003aac <HAL_TIMEx_MasterConfigSynchronization+0x44>
 8003aa2:	f240 7187 	movw	r1, #1927	; 0x787
 8003aa6:	481e      	ldr	r0, [pc, #120]	; (8003b20 <HAL_TIMEx_MasterConfigSynchronization+0xb8>)
 8003aa8:	f7fc fd54 	bl	8000554 <assert_failed>
 8003aac:	686b      	ldr	r3, [r5, #4]
 8003aae:	f033 0380 	bics.w	r3, r3, #128	; 0x80
 8003ab2:	d127      	bne.n	8003b04 <HAL_TIMEx_MasterConfigSynchronization+0x9c>
 8003ab4:	f894 303c 	ldrb.w	r3, [r4, #60]	; 0x3c
 8003ab8:	2b01      	cmp	r3, #1
 8003aba:	d02c      	beq.n	8003b16 <HAL_TIMEx_MasterConfigSynchronization+0xae>
 8003abc:	2202      	movs	r2, #2
 8003abe:	6823      	ldr	r3, [r4, #0]
 8003ac0:	f884 203d 	strb.w	r2, [r4, #61]	; 0x3d
 8003ac4:	685a      	ldr	r2, [r3, #4]
 8003ac6:	6829      	ldr	r1, [r5, #0]
 8003ac8:	4814      	ldr	r0, [pc, #80]	; (8003b1c <HAL_TIMEx_MasterConfigSynchronization+0xb4>)
 8003aca:	f022 0270 	bic.w	r2, r2, #112	; 0x70
 8003ace:	430a      	orrs	r2, r1
 8003ad0:	4283      	cmp	r3, r0
 8003ad2:	6899      	ldr	r1, [r3, #8]
 8003ad4:	605a      	str	r2, [r3, #4]
 8003ad6:	d009      	beq.n	8003aec <HAL_TIMEx_MasterConfigSynchronization+0x84>
 8003ad8:	f1b3 4f80 	cmp.w	r3, #1073741824	; 0x40000000
 8003adc:	d006      	beq.n	8003aec <HAL_TIMEx_MasterConfigSynchronization+0x84>
 8003ade:	4a11      	ldr	r2, [pc, #68]	; (8003b24 <HAL_TIMEx_MasterConfigSynchronization+0xbc>)
 8003ae0:	4293      	cmp	r3, r2
 8003ae2:	d003      	beq.n	8003aec <HAL_TIMEx_MasterConfigSynchronization+0x84>
 8003ae4:	f502 6280 	add.w	r2, r2, #1024	; 0x400
 8003ae8:	4293      	cmp	r3, r2
 8003aea:	d104      	bne.n	8003af6 <HAL_TIMEx_MasterConfigSynchronization+0x8e>
 8003aec:	686a      	ldr	r2, [r5, #4]
 8003aee:	f021 0180 	bic.w	r1, r1, #128	; 0x80
 8003af2:	4311      	orrs	r1, r2
 8003af4:	6099      	str	r1, [r3, #8]
 8003af6:	2301      	movs	r3, #1
 8003af8:	2000      	movs	r0, #0
 8003afa:	f884 303d 	strb.w	r3, [r4, #61]	; 0x3d
 8003afe:	f884 003c 	strb.w	r0, [r4, #60]	; 0x3c
 8003b02:	bd38      	pop	{r3, r4, r5, pc}
 8003b04:	f44f 61f1 	mov.w	r1, #1928	; 0x788
 8003b08:	4805      	ldr	r0, [pc, #20]	; (8003b20 <HAL_TIMEx_MasterConfigSynchronization+0xb8>)
 8003b0a:	f7fc fd23 	bl	8000554 <assert_failed>
 8003b0e:	f894 303c 	ldrb.w	r3, [r4, #60]	; 0x3c
 8003b12:	2b01      	cmp	r3, #1
 8003b14:	d1d2      	bne.n	8003abc <HAL_TIMEx_MasterConfigSynchronization+0x54>
 8003b16:	2002      	movs	r0, #2
 8003b18:	bd38      	pop	{r3, r4, r5, pc}
 8003b1a:	bf00      	nop
 8003b1c:	40012c00 	.word	0x40012c00
 8003b20:	08003d30 	.word	0x08003d30
 8003b24:	40000400 	.word	0x40000400

08003b28 <HAL_TIMEx_CommutCallback>:
 8003b28:	4770      	bx	lr
 8003b2a:	bf00      	nop

08003b2c <HAL_TIMEx_BreakCallback>:
 8003b2c:	4770      	bx	lr
 8003b2e:	bf00      	nop

08003b30 <__libc_init_array>:
 8003b30:	b570      	push	{r4, r5, r6, lr}
 8003b32:	2600      	movs	r6, #0
 8003b34:	4d0c      	ldr	r5, [pc, #48]	; (8003b68 <__libc_init_array+0x38>)
 8003b36:	4c0d      	ldr	r4, [pc, #52]	; (8003b6c <__libc_init_array+0x3c>)
 8003b38:	1b64      	subs	r4, r4, r5
 8003b3a:	10a4      	asrs	r4, r4, #2
 8003b3c:	42a6      	cmp	r6, r4
 8003b3e:	d109      	bne.n	8003b54 <__libc_init_array+0x24>
 8003b40:	f000 f822 	bl	8003b88 <_init>
 8003b44:	2600      	movs	r6, #0
 8003b46:	4d0a      	ldr	r5, [pc, #40]	; (8003b70 <__libc_init_array+0x40>)
 8003b48:	4c0a      	ldr	r4, [pc, #40]	; (8003b74 <__libc_init_array+0x44>)
 8003b4a:	1b64      	subs	r4, r4, r5
 8003b4c:	10a4      	asrs	r4, r4, #2
 8003b4e:	42a6      	cmp	r6, r4
 8003b50:	d105      	bne.n	8003b5e <__libc_init_array+0x2e>
 8003b52:	bd70      	pop	{r4, r5, r6, pc}
 8003b54:	f855 3b04 	ldr.w	r3, [r5], #4
 8003b58:	4798      	blx	r3
 8003b5a:	3601      	adds	r6, #1
 8003b5c:	e7ee      	b.n	8003b3c <__libc_init_array+0xc>
 8003b5e:	f855 3b04 	ldr.w	r3, [r5], #4
 8003b62:	4798      	blx	r3
 8003b64:	3601      	adds	r6, #1
 8003b66:	e7f2      	b.n	8003b4e <__libc_init_array+0x1e>
 8003b68:	08003d6c 	.word	0x08003d6c
 8003b6c:	08003d6c 	.word	0x08003d6c
 8003b70:	08003d6c 	.word	0x08003d6c
 8003b74:	08003d70 	.word	0x08003d70

08003b78 <memset>:
 8003b78:	4603      	mov	r3, r0
 8003b7a:	4402      	add	r2, r0
 8003b7c:	4293      	cmp	r3, r2
 8003b7e:	d100      	bne.n	8003b82 <memset+0xa>
 8003b80:	4770      	bx	lr
 8003b82:	f803 1b01 	strb.w	r1, [r3], #1
 8003b86:	e7f9      	b.n	8003b7c <memset+0x4>

08003b88 <_init>:
 8003b88:	b5f8      	push	{r3, r4, r5, r6, r7, lr}
 8003b8a:	bf00      	nop
 8003b8c:	bcf8      	pop	{r3, r4, r5, r6, r7}
 8003b8e:	bc08      	pop	{r3}
 8003b90:	469e      	mov	lr, r3
 8003b92:	4770      	bx	lr

08003b94 <_fini>:
 8003b94:	b5f8      	push	{r3, r4, r5, r6, r7, lr}
 8003b96:	bf00      	nop
 8003b98:	bcf8      	pop	{r3, r4, r5, r6, r7}
 8003b9a:	bc08      	pop	{r3}
 8003b9c:	469e      	mov	lr, r3
 8003b9e:	4770      	bx	lr
